"File: wind_speed.c  Assembler  Version HGASM0202      Page 1


   1  0000              ; Generated by holtek-gcc v3.19, Fri Feb 05 16:06:21 2021
   2  0000              ; 
   3  0000              ; Configuration:
   4  0000              ;       with long instruction
   5  0000              ;       Multi-ROM, Multi-RAM
   6  0000              ;       bits_per_rom_unit:16
   7  0000              ;       with mp1
   8  0000              ;       with tbhp, address(0x9)
   9  0000              ;          Use tabrd-const
  10  0000              ;       
  11  0000              ; SFR address of long-instruction arch:
  12  0000              ;    mp0 = -1,1,0
  13  0000              ;    mp1 = 4,3,2
  14  0000              ;    mp2 = 14,13,12
  15  0000              ;    tbp = 9,7,8
  16  0000              ;    acc = 5
  17  0000              ;    pcl = 6
  18  0000              ;    status = 10
  19  0000              ;    bp = 11
  20  0000              ;    intc = 48
  21  0000              ;       
  22  0000              ;       
  23  0000              ; use 'tabrdc' instead of 'tabrd'
  24  0000              ;       
  25  0000              
  26  0000              #pragma translator "holtek-gcc 4.6.4" "3.19" "build 20130711"
  27  0000              ; Rebuild 718
  28  0000              
  29  0000              ir equ [2]
  30  0000              mp equ [3]
  31  0000              sbp equ [4]
  32  0000              acc equ [5]
  33  0000              bp equ [11]
  34  0000              tblp equ [7]
  35  0000              tbhp equ [9]
  36  0000              status equ [10]
  37  0000              c equ [10].0
  38  0000              ac equ [10].1
  39  0000              z equ [10].2
  40  0000              ov equ [10].3
  41  0000              cz equ [10].6
  42  0000              sc equ [10].7
  43  0000              intc equ [48]
  44  0000              
  45  0000              extern ra:byte
  46  0000              extern rb:byte
  47  0000              extern rc:byte
  48  0000              extern rd:byte
  49  0000              extern re:byte
  50  0000              extern rf:byte
  51  0000              extern rg:byte
  52  0000              extern rh:byte
  53  0000              extern _Crom2Prom:near
  54  0000              extern _Crom2PromNext:near
  55  0000              
  56  0000              RAMBANK 0 @BITDATASEC, @BITDATASEC1
  57  0000              @HCCINIT	.section 'data'
  58  0000              @HCCINIT0	.section 'data'
  59  0000              @BITDATASEC	 .section 'data'
"File: wind_speed.ASM  Assembler  Version HGASM0202      Page 2

  60  0000              @BITDATASEC1	 .section 'data'
  61  0000              
  62  0000              #pragma debug scope 1 1
  63  0000              	extern __DELAY3:near
  64  0000              	extern __DELAYX3:near
  65  0000              	extern __DELAYX6:near
  66  0000              	extern __DELAYY5:near
  67  0000              	extern __DELAYY3:near
  68  0000              	extern _builtin_holtek_delay_2:byte
  69  0000              ___adrh equ [107]
  70  0000              ___adrl equ [106]
  71  0000              ___adcr0 equ [104]
  72  0000              public _ISR_ADC
  73  0000              #pragma debug scope 2 1

 224  0000              #line 224 "c:\users\bill\desktop\軒哥論文相關\source code\20210129\device\ht66f70a\wind_speed\wind_speed.c"
 224  0000              rombank 0 @ISR_ADC_code
 224  0000              @ISR_ADC_code .section at 28 'code'
 224  0000  0080     E  	mov r1,a
 224  0001  070B        	mov a,bp
 224  0002  1F0B        	clr bp
 224  0003  2800     R  	jmp _ISR_ADC
 224  0004              ROMBANK 0 _ISR_ADC
 224  0004              #pragma debug scope 1 1
 224  0004              @dummy28 endp
 224  0004              #pragma debug scope 3 1
 224  0000              _ISR_ADC .section 'code'
 224  0000              _ISR_ADC proc
 224  0000  0080     E  	mov r2,a
 224  0001  070A        	mov a, status
 224  0002  0080     E  	mov r3,a
 225  0003              #line 225 "c:\users\bill\desktop\軒哥論文相關\source code\20210129\device\ht66f70a\wind_speed\wind_speed.c"
 225  0003  076B        	mov a,[107]
 225  0004  0080     E  	mov rc,a
 225  0005  1F00     E  	clr rb
 225  0006  076A        	mov a,[106]
 225  0007  0380     E  	addm a,rb
 225  0008  3C0A        	sz c
 225  0009  1480     E  	inc rc
 225  000A  0700     E  	mov a,rb
 225  000B  0080     R  	mov _ADR[0],a
 225  000C  0700     E  	mov a,rc
 225  000D  0080     R  	mov _ADR[1],a
 226  000E              #line 226 "c:\users\bill\desktop\軒哥論文相關\source code\20210129\device\ht66f70a\wind_speed\wind_speed.c"
 226  000E  0700     E  	mov a,rb
 226  000F  0080     E  	mov rd,a
 226  0010  0700     E  	mov a,rc
 226  0011  0080     E  	mov re,a
 226  0012  0FFF        	mov a,255  
 226  0013  0680     E  	andm a,rd  
 226  0014  0F00        	mov a,0  
 226  0015  0680     E  	andm a,re
 226  0016  0700     E  	mov a,rd
 226  0017  0080     R  	mov _ADC_Ch4_LByte[0],a
 226  0018  0700     E  	mov a,re
 226  0019  0080     R  	mov _ADC_Ch4_LByte[1],a
 227  001A              #line 227 "c:\users\bill\desktop\軒哥論文相關\source code\20210129\device\ht66f70a\wind_speed\wind_speed.c"
 227  001A  0700     E  	mov a,rb
 227  001B  0080     E  	mov rd,a
 227  001C  0700     E  	mov a,rc
"File: wind_speed.c  Assembler  Version HGASM0202      Page 3

 227  001D  0080     E  	mov re,a
 227  001E  0700     E  	mov a,re
 227  001F  0080     E  	mov rd,a
 227  0020  1F00     E  	clr re
 227  0021  0700     E  	mov a,rd
 227  0022  0080     R  	mov _ADC_Ch4_HByte[0],a
 227  0023  0700     E  	mov a,re
 227  0024  0080     R  	mov _ADC_Ch4_HByte[1],a
 228  0025              #line 228 "c:\users\bill\desktop\軒哥論文相關\source code\20210129\device\ht66f70a\wind_speed\wind_speed.c"
 228  0025  33E8        	set [104].7
 229  0026              #line 229 "c:\users\bill\desktop\軒哥論文相關\source code\20210129\device\ht66f70a\wind_speed\wind_speed.c"
 229  0026  37E8        	clr [104].7
 229  0027  0700     E  	mov a,r2
 229  0028  008B        	mov bp,a
 229  0029  0700     E  	mov a,r3
 229  002A  008A        	mov status,a
 229  002B  0700     E  	mov a,r1
 229  002C  0004        	reti
 229  002D              _ISR_ADC endp
 229  002D              
 229  002D              #line 229 "c:\users\bill\desktop\軒哥論文相關\source code\20210129\device\ht66f70a\wind_speed\wind_speed.c"
 229  002D              #pragma debug scope 1 1
 229  002D              ___pc equ [26]
 229  002D              ___status equ [10]
 229  002D              public _TRANSMIT
 229  002D              #pragma debug scope 4 1
 233  002D              #line 233 "c:\users\bill\desktop\軒哥論文相關\source code\20210129\device\ht66f70a\wind_speed\wind_speed.c"
 233  0000              _TRANSMIT .section 'code'
 233  0000              _TRANSMIT proc
 234  0000              #line 234 "c:\users\bill\desktop\軒哥論文相關\source code\20210129\device\ht66f70a\wind_speed\wind_speed.c"
 234  0000  0700     R  	mov a,_BaudRate[0]
 234  0001  0080     R  	mov _BaudRate_Const[0],a
 235  0002              #line 235 "c:\users\bill\desktop\軒哥論文相關\source code\20210129\device\ht66f70a\wind_speed\wind_speed.c"
 235  0002  351A        	clr [26].2
 236  0003              #line 236 "c:\users\bill\desktop\軒哥論文相關\source code\20210129\device\ht66f70a\wind_speed\wind_speed.c"
 236  0003  0F08        	mov a,8
 236  0004  0080     R  	mov _UartBitCount[0],a
 236  0005              _L3:
 237  0005              #line 237 "c:\users\bill\desktop\軒哥論文相關\source code\20210129\device\ht66f70a\wind_speed\wind_speed.c"
 237  0005  1E00     R  	snz _BaudRate_Const[0]
 237  0006  2800     R  	jmp _L17
 239  0007              #line 239 "c:\users\bill\desktop\軒哥論文相關\source code\20210129\device\ht66f70a\wind_speed\wind_speed.c"
 239  0007  1580     R  	dec _BaudRate_Const[0]
 239  0008  2800     R  	jmp _L3
 239  0009              _L17:
 262  0009              #line 262 "c:\users\bill\desktop\軒哥論文相關\source code\20210129\device\ht66f70a\wind_speed\wind_speed.c"
 262  0009  0700     R  	mov a,_BaudRate[0]
 262  000A  0080     R  	mov _BaudRate_Const[0],a
 242  000B              #line 242 "c:\users\bill\desktop\軒哥論文相關\source code\20210129\device\ht66f70a\wind_speed\wind_speed.c"
 242  000B  1E00     R  	snz _UartBitCount[0]
 242  000C  2800     R  	jmp _L19
 244  000D              #line 244 "c:\users\bill\desktop\軒哥論文相關\source code\20210129\device\ht66f70a\wind_speed\wind_speed.c"
 244  000D  1580     R  	dec _UartBitCount[0]
 245  000E              #line 245 "c:\users\bill\desktop\軒哥論文相關\source code\20210129\device\ht66f70a\wind_speed\wind_speed.c"
 245  000E              ;# 245 "c:\users\bill\desktop\軒哥論文相關\source code\20210129\device\ht66f70a\wind_speed\wind_speed.c" 1
 245  000E  1B80     R  	rrc _TXREG[0]
 246  000F              #line 246 "c:\users\bill\desktop\軒哥論文相關\source code\20210129\device\ht66f70a\wind_speed\wind_speed.c"
 246  000F  3C0A        	sz [10].0
 246  0010  2800     R  	jmp _L6
 248  0011              #line 248 "c:\users\bill\desktop\軒哥論文相關\source code\20210129\device\ht66f70a\wind_speed\wind_speed.c"
"File: wind_speed.c  Assembler  Version HGASM0202      Page 4

 248  0011  351A        	clr [26].2
 248  0012              _L7:
 249  0012              #line 249 "c:\users\bill\desktop\軒哥論文相關\source code\20210129\device\ht66f70a\wind_speed\wind_speed.c"
 249  0012  1E00     R  	snz _BaudRate_Const[0]
 249  0013  2800     R  	jmp _L17
 251  0014              #line 251 "c:\users\bill\desktop\軒哥論文相關\source code\20210129\device\ht66f70a\wind_speed\wind_speed.c"
 251  0014  1580     R  	dec _BaudRate_Const[0]
 251  0015  2800     R  	jmp _L7
 251  0016              _L6:
 257  0016              #line 257 "c:\users\bill\desktop\軒哥論文相關\source code\20210129\device\ht66f70a\wind_speed\wind_speed.c"
 257  0016  311A        	set [26].2
 257  0017              _L10:
 258  0017              #line 258 "c:\users\bill\desktop\軒哥論文相關\source code\20210129\device\ht66f70a\wind_speed\wind_speed.c"
 258  0017  1E00     R  	snz _BaudRate_Const[0]
 258  0018  2800     R  	jmp _L17
 260  0019              #line 260 "c:\users\bill\desktop\軒哥論文相關\source code\20210129\device\ht66f70a\wind_speed\wind_speed.c"
 260  0019  1580     R  	dec _BaudRate_Const[0]
 260  001A  2800     R  	jmp _L10
 260  001B              _L19:
 265  001B              #line 265 "c:\users\bill\desktop\軒哥論文相關\source code\20210129\device\ht66f70a\wind_speed\wind_speed.c"
 265  001B              ;# 265 "c:\users\bill\desktop\軒哥論文相關\source code\20210129\device\ht66f70a\wind_speed\wind_speed.c" 1
 265  001B  0000        	nop
 266  001C              #line 266 "c:\users\bill\desktop\軒哥論文相關\source code\20210129\device\ht66f70a\wind_speed\wind_speed.c"
 266  001C              ;# 266 "c:\users\bill\desktop\軒哥論文相關\source code\20210129\device\ht66f70a\wind_speed\wind_speed.c" 1
 266  001C  0000        	nop
 267  001D              #line 267 "c:\users\bill\desktop\軒哥論文相關\source code\20210129\device\ht66f70a\wind_speed\wind_speed.c"
 267  001D  311A        	set [26].2
 267  001E              _L13:
 268  001E              #line 268 "c:\users\bill\desktop\軒哥論文相關\source code\20210129\device\ht66f70a\wind_speed\wind_speed.c"
 268  001E  1E00     R  	snz _BaudRate_Const[0]
 268  001F  2800     R  	jmp _L20
 270  0020              #line 270 "c:\users\bill\desktop\軒哥論文相關\source code\20210129\device\ht66f70a\wind_speed\wind_speed.c"
 270  0020  1580     R  	dec _BaudRate_Const[0]
 270  0021  2800     R  	jmp _L13
 270  0022              _L20:
 272  0022              #line 272 "c:\users\bill\desktop\軒哥論文相關\source code\20210129\device\ht66f70a\wind_speed\wind_speed.c"
 272  0022  0700     R  	mov a,_BaudRate[0]
 272  0023  0080     R  	mov _BaudRate_Const[0],a
 272  0024              _L15:
 273  0024              #line 273 "c:\users\bill\desktop\軒哥論文相關\source code\20210129\device\ht66f70a\wind_speed\wind_speed.c"
 273  0024  1E00     R  	snz _BaudRate_Const[0]
 273  0025  2800     R  	jmp _L21
 275  0026              #line 275 "c:\users\bill\desktop\軒哥論文相關\source code\20210129\device\ht66f70a\wind_speed\wind_speed.c"
 275  0026  1580     R  	dec _BaudRate_Const[0]
 275  0027  2800     R  	jmp _L15
 275  0028              _L21:
 277  0028              #line 277 "c:\users\bill\desktop\軒哥論文相關\source code\20210129\device\ht66f70a\wind_speed\wind_speed.c"
 277  0028  0700     R  	mov a,_BaudRate_Const[0]
 277  0029  0080     E  	mov ra,a
 277  002A  0700     R  	mov a,_BaudRate[0]
 277  002B  0080     E  	mov ra,a
 279  002C              #line 279 "c:\users\bill\desktop\軒哥論文相關\source code\20210129\device\ht66f70a\wind_speed\wind_speed.c"
 279  002C              ;# 279 "c:\users\bill\desktop\軒哥論文相關\source code\20210129\device\ht66f70a\wind_speed\wind_speed.c" 1
 279  002C              	IF 10000>263690
 279  002C              ;# 279 "c:\users\bill\desktop\軒哥論文相關\source code\20210129\device\ht66f70a\wind_speed\wind_speed.c" 1
 279  002C              	ERRMESSAGE 'the value 10000of the argument exceeds the maxinum 263690'
 279  002C              	ENDIF
 279  002C              ;# 279 "c:\users\bill\desktop\軒哥論文相關\source code\20210129\device\ht66f70a\wind_speed\wind_speed.c" 1
 279  002C              	IF 10000<0
 279  002C              ;# 279 "c:\users\bill\desktop\軒哥論文相關\source code\20210129\device\ht66f70a\wind_speed\wind_speed.c" 1
"File: wind_speed.c  Assembler  Version HGASM0202      Page 5

 279  002C              	ERRMESSAGE 'the value 10000 of the argument exceeds the mininum 0'
 279  002C              	ENDIF
 279  002C              ;# 279 "c:\users\bill\desktop\軒哥論文相關\source code\20210129\device\ht66f70a\wind_speed\wind_speed.c" 1
 279  002C              	IF 10000==0
 279  002C              ;# 279 "c:\users\bill\desktop\軒哥論文相關\source code\20210129\device\ht66f70a\wind_speed\wind_speed.c" 1
 279  002C              	JMP $
 279  002C              	ENDIF
 279  002C              ;# 279 "c:\users\bill\desktop\軒哥論文相關\source code\20210129\device\ht66f70a\wind_speed\wind_speed.c" 1
 279  002C              	IF (10000>=1) AND (10000<( 4 + __PBP__ * 2))
 279  002C              ;# 279 "c:\users\bill\desktop\軒哥論文相關\source code\20210129\device\ht66f70a\wind_speed\wind_speed.c" 1
 279  002C              	NOP
 279  002C              	ENDIF
 279  002C              ;# 279 "c:\users\bill\desktop\軒哥論文相關\source code\20210129\device\ht66f70a\wind_speed\wind_speed.c" 1
 279  002C              	IF (10000>=2) AND (10000<( 4 + __PBP__ * 2))
 279  002C              ;# 279 "c:\users\bill\desktop\軒哥論文相關\source code\20210129\device\ht66f70a\wind_speed\wind_speed.c" 1
 279  002C              	NOP
 279  002C              	ENDIF
 279  002C              ;# 279 "c:\users\bill\desktop\軒哥論文相關\source code\20210129\device\ht66f70a\wind_speed\wind_speed.c" 1
 279  002C              	IF (10000>=3) AND (10000<( 4 + __PBP__ * 2))
 279  002C              ;# 279 "c:\users\bill\desktop\軒哥論文相關\source code\20210129\device\ht66f70a\wind_speed\wind_speed.c" 1
 279  002C              	NOP
 279  002C              	ENDIF
 279  002C              ;# 279 "c:\users\bill\desktop\軒哥論文相關\source code\20210129\device\ht66f70a\wind_speed\wind_speed.c" 1
 279  002C              	IF (10000>=4) AND (10000<( 4 + __PBP__ * 2)) AND ( __PBP__ > 0 )
 279  002C              ;# 279 "c:\users\bill\desktop\軒哥論文相關\source code\20210129\device\ht66f70a\wind_speed\wind_speed.c" 1
 279  002C              	NOP
 279  002C              	ENDIF
 279  002C              ;# 279 "c:\users\bill\desktop\軒哥論文相關\source code\20210129\device\ht66f70a\wind_speed\wind_speed.c" 1
 279  002C              	IF (10000>=5) AND (10000<( 4 + __PBP__ * 2)) AND ( __PBP__ > 0 )
 279  002C              ;# 279 "c:\users\bill\desktop\軒哥論文相關\source code\20210129\device\ht66f70a\wind_speed\wind_speed.c" 1
 279  002C              	NOP
 279  002C              	ENDIF
 279  002C              ;# 279 "c:\users\bill\desktop\軒哥論文相關\source code\20210129\device\ht66f70a\wind_speed\wind_speed.c" 1
 279  002C              	IF (10000>=6) AND (10000<( 4 + __PBP__ * 2))  AND ( __PBP__ > 1 )
 279  002C              ;# 279 "c:\users\bill\desktop\軒哥論文相關\source code\20210129\device\ht66f70a\wind_speed\wind_speed.c" 1
 279  002C              	NOP
 279  002C              	ENDIF
 279  002C              ;# 279 "c:\users\bill\desktop\軒哥論文相關\source code\20210129\device\ht66f70a\wind_speed\wind_speed.c" 1
 279  002C              	IF (10000>=7) AND (10000<( 4 + __PBP__ * 2))  AND ( __PBP__ > 1 )
 279  002C              ;# 279 "c:\users\bill\desktop\軒哥論文相關\source code\20210129\device\ht66f70a\wind_speed\wind_speed.c" 1
 279  002C              	NOP
 279  002C              	ENDIF
 279  002C              ;# 279 "c:\users\bill\desktop\軒哥論文相關\source code\20210129\device\ht66f70a\wind_speed\wind_speed.c" 1
 279  002C              	IF (10000>=8) AND (10000<( 4 + __PBP__ * 2))  AND ( __PBP__ > 2 )
 279  002C              ;# 279 "c:\users\bill\desktop\軒哥論文相關\source code\20210129\device\ht66f70a\wind_speed\wind_speed.c" 1
 279  002C              	NOP
 279  002C              	ENDIF
 279  002C              ;# 279 "c:\users\bill\desktop\軒哥論文相關\source code\20210129\device\ht66f70a\wind_speed\wind_speed.c" 1
 279  002C              	IF (10000==9)  AND ( __PBP__ > 2 )
 279  002C              ;# 279 "c:\users\bill\desktop\軒哥論文相關\source code\20210129\device\ht66f70a\wind_speed\wind_speed.c" 1
 279  002C              	NOP
 279  002C              	ENDIF
 279  002C              ;# 279 "c:\users\bill\desktop\軒哥論文相關\source code\20210129\device\ht66f70a\wind_speed\wind_speed.c" 1
 279  002C              	IF (10000< ( 8 + __PBP__ * 2)) AND (10000>( 3 + __PBP__ * 2))
 279  002C              ;# 279 "c:\users\bill\desktop\軒哥論文相關\source code\20210129\device\ht66f70a\wind_speed\wind_speed.c" 1
 279  002C              	fcall __DELAY3 + ( 7 + __PBP__ * 2) -10000
 279  002C              	ENDIF
 279  002C              ;# 279 "c:\users\bill\desktop\軒哥論文相關\source code\20210129\device\ht66f70a\wind_speed\wind_speed.c" 1
 279  002C              	IF (10000< ( 0404h + __PBP__ * 2)) AND (10000>( 7 + __PBP__ * 2))
 279  002C              ;# 279 "c:\users\bill\desktop\軒哥論文相關\source code\20210129\device\ht66f70a\wind_speed\wind_speed.c" 1
"File: wind_speed.c  Assembler  Version HGASM0202      Page 6

 279  002C              	MOV A,(10000-( 4 + __PBP__ * 2))/4
 279  002C              ;# 279 "c:\users\bill\desktop\軒哥論文相關\source code\20210129\device\ht66f70a\wind_speed\wind_speed.c" 1
 279  002C              	fcall __DELAYX3 + 3 -((10000-( 4 + __PBP__ * 2)) MOD 4) 
 279  002C              	ENDIF
 279  002C              ;# 279 "c:\users\bill\desktop\軒哥論文相關\source code\20210129\device\ht66f70a\wind_speed\wind_speed.c" 1
 279  002C              	IF (10000< ( 040bh + __PBP__ * 2)) AND (10000> ( 0403h + __PBP__ * 2))
 279  002C              ;# 279 "c:\users\bill\desktop\軒哥論文相關\source code\20210129\device\ht66f70a\wind_speed\wind_speed.c" 1
 279  002C              	MOV A,0 
 279  002C              ;# 279 "c:\users\bill\desktop\軒哥論文相關\source code\20210129\device\ht66f70a\wind_speed\wind_speed.c" 1
 279  002C              	fcall __DELAYX6 + ( 040ah + __PBP__ * 2) -10000
 279  002C              	ENDIF
 279  002C              ;# 279 "c:\users\bill\desktop\軒哥論文相關\source code\20210129\device\ht66f70a\wind_speed\wind_speed.c" 1
 279  002C              	IF (10000 >= ( 040bh + __PBP__ * 2)) AND ((((10000-( 9 + __PBP__ * 2))%0402h)/4+1)>256)
 279  002C              ;# 279 "c:\users\bill\desktop\軒哥論文相關\source code\20210129\device\ht66f70a\wind_speed\wind_speed.c" 1
 279  002C              	MOV A,(10000-( 9 + __PBP__ * 2))/0402h
 279  002C              ;# 279 "c:\users\bill\desktop\軒哥論文相關\source code\20210129\device\ht66f70a\wind_speed\wind_speed.c" 1
 279  002C              	MOV _builtin_holtek_delay_2,A
 279  002C              ;# 279 "c:\users\bill\desktop\軒哥論文相關\source code\20210129\device\ht66f70a\wind_speed\wind_speed.c" 1
 279  002C              	MOV A,0
 279  002C              ;# 279 "c:\users\bill\desktop\軒哥論文相關\source code\20210129\device\ht66f70a\wind_speed\wind_speed.c" 1
 279  002C              	fcall __DELAYY5 +5- (((10000-( 9 + __PBP__ * 2))%0402h)%6) 
 279  002C              	ENDIF
 279  002C              ;# 279 "c:\users\bill\desktop\軒哥論文相關\source code\20210129\device\ht66f70a\wind_speed\wind_speed.c" 1
 279  002C              	IF (10000 >= ( 040bh + __PBP__ * 2)) AND ((((10000-( 9 + __PBP__ * 2))%0402h)/4+1)<=256)
 279  002C              ;# 279 "c:\users\bill\desktop\軒哥論文相關\source code\20210129\device\ht66f70a\wind_speed\wind_speed.c" 1
 279  002C  0F09        	MOV A,(10000-( 9 + __PBP__ * 2))/0402h
 279  002D              ;# 279 "c:\users\bill\desktop\軒哥論文相關\source code\20210129\device\ht66f70a\wind_speed\wind_speed.c" 1
 279  002D  0080     E  	MOV _builtin_holtek_delay_2,A
 279  002E              ;# 279 "c:\users\bill\desktop\軒哥論文相關\source code\20210129\device\ht66f70a\wind_speed\wind_speed.c" 1
 279  002E  0FBD        	MOV A,((10000-( 9 + __PBP__ * 2))%0402h)/4+1
 279  002F              ;# 279 "c:\users\bill\desktop\軒哥論文相關\source code\20210129\device\ht66f70a\wind_speed\wind_speed.c" 1
 279  002F              	fcall __DELAYY3 +3-(((10000-( 9 + __PBP__ * 2))%0402h)%4) 
 279  0036              	ENDIF
 279  0036  0003        	ret
 279  0037              _TRANSMIT endp
 279  0037              #line 279 "c:\users\bill\desktop\軒哥論文相關\source code\20210129\device\ht66f70a\wind_speed\wind_speed.c"
 279  0037              #pragma debug scope 1 1
 279  0037              public _RECEIVE
 279  0037              #pragma debug scope 5 1
 283  0037              #line 283 "c:\users\bill\desktop\軒哥論文相關\source code\20210129\device\ht66f70a\wind_speed\wind_speed.c"
 283  0000              _RECEIVE .section 'code'
 283  0000              _RECEIVE proc
 284  0000              #line 284 "c:\users\bill\desktop\軒哥論文相關\source code\20210129\device\ht66f70a\wind_speed\wind_speed.c"
 284  0000  1400     R  	inca _BaudRate[0]
 284  0001  0080     R  	mov _BaudRate_Const[0],a
 285  0002              #line 285 "c:\users\bill\desktop\軒哥論文相關\source code\20210129\device\ht66f70a\wind_speed\wind_speed.c"
 285  0002  0F08        	mov a,8
 285  0003  0080     R  	mov _UartBitCount[0],a
 286  0004              #line 286 "c:\users\bill\desktop\軒哥論文相關\source code\20210129\device\ht66f70a\wind_speed\wind_speed.c"
 286  0004  3D9A        	sz [26].3
 286  0005  2800     R  	jmp _L22
 286  0006              _L34:
 288  0006              #line 288 "c:\users\bill\desktop\軒哥論文相關\source code\20210129\device\ht66f70a\wind_speed\wind_speed.c"
 288  0006  1E00     R  	snz _BaudRate_Const[0]
 288  0007  2800     R  	jmp _L36
 290  0008              #line 290 "c:\users\bill\desktop\軒哥論文相關\source code\20210129\device\ht66f70a\wind_speed\wind_speed.c"
 290  0008  1580     R  	dec _BaudRate_Const[0]
 290  0009  2800     R  	jmp _L34
 290  000A              _L36:
 310  000A              #line 310 "c:\users\bill\desktop\軒哥論文相關\source code\20210129\device\ht66f70a\wind_speed\wind_speed.c"
"File: wind_speed.c  Assembler  Version HGASM0202      Page 7

 310  000A  1400     R  	inca _BaudRate[0]
 310  000B  0080     R  	mov _BaudRate_Const[0],a
 293  000C              #line 293 "c:\users\bill\desktop\軒哥論文相關\source code\20210129\device\ht66f70a\wind_speed\wind_speed.c"
 293  000C  1E00     R  	snz _UartBitCount[0]
 293  000D  2800     R  	jmp _L37
 295  000E              #line 295 "c:\users\bill\desktop\軒哥論文相關\source code\20210129\device\ht66f70a\wind_speed\wind_speed.c"
 295  000E  1580     R  	dec _UartBitCount[0]
 296  000F              #line 296 "c:\users\bill\desktop\軒哥論文相關\source code\20210129\device\ht66f70a\wind_speed\wind_speed.c"
 296  000F  399A        	snz [26].3
 296  0010  2800     R  	jmp _L28
 298  0011              #line 298 "c:\users\bill\desktop\軒哥論文相關\source code\20210129\device\ht66f70a\wind_speed\wind_speed.c"
 298  0011  300A        	set [10].0
 298  0012  2800     R  	jmp _L29
 298  0013              _L28:
 302  0013              #line 302 "c:\users\bill\desktop\軒哥論文相關\source code\20210129\device\ht66f70a\wind_speed\wind_speed.c"
 302  0013  340A        	clr [10].0
 302  0014              _L29:
 304  0014              #line 304 "c:\users\bill\desktop\軒哥論文相關\source code\20210129\device\ht66f70a\wind_speed\wind_speed.c"
 304  0014              ;# 304 "c:\users\bill\desktop\軒哥論文相關\source code\20210129\device\ht66f70a\wind_speed\wind_speed.c" 1
 304  0014  1B80     R  	rrc _RCREG[0]
 304  0015              _L30:
 306  0015              #line 306 "c:\users\bill\desktop\軒哥論文相關\source code\20210129\device\ht66f70a\wind_speed\wind_speed.c"
 306  0015  1E00     R  	snz _BaudRate_Const[0]
 306  0016  2800     R  	jmp _L36
 308  0017              #line 308 "c:\users\bill\desktop\軒哥論文相關\source code\20210129\device\ht66f70a\wind_speed\wind_speed.c"
 308  0017  1580     R  	dec _BaudRate_Const[0]
 308  0018  2800     R  	jmp _L30
 308  0019              _L37:
 312  0019              #line 312 "c:\users\bill\desktop\軒哥論文相關\source code\20210129\device\ht66f70a\wind_speed\wind_speed.c"
 312  0019              ;# 312 "c:\users\bill\desktop\軒哥論文相關\source code\20210129\device\ht66f70a\wind_speed\wind_speed.c" 1
 312  0019  0000        	nop
 313  001A              #line 313 "c:\users\bill\desktop\軒哥論文相關\source code\20210129\device\ht66f70a\wind_speed\wind_speed.c"
 313  001A  0F00     R  	mov a,low offset _ReceiveData
 313  001B  0300     R  	add a,_ZigbeeREG_Const[0]
 313  001C  0083        	mov mp,a
 313  001D  0F00     R  	mov a,high offset _ReceiveData
 313  001E  1F04        	clr sbp
 313  001F  1384        	adcm a,sbp
 313  0020  0700     R  	mov a,_RCREG[0]
 313  0021  0082        	mov ir,a
 314  0022              #line 314 "c:\users\bill\desktop\軒哥論文相關\source code\20210129\device\ht66f70a\wind_speed\wind_speed.c"
 314  0022  0700     R  	mov a,_ZigbeeREG_Const[0]
 314  0023  0A17        	sub a,23
 314  0024  390A        	snz z
 314  0025  2800     R  	jmp _L22
 316  0026              #line 316 "c:\users\bill\desktop\軒哥論文相關\source code\20210129\device\ht66f70a\wind_speed\wind_speed.c"
 316  0026  1F00     R  	clr _ZigbeeREG_Const[0]
 316  0027              _L22:
 316  0027  0003        	ret
 316  0028              _RECEIVE endp
 316  0028              #line 316 "c:\users\bill\desktop\軒哥論文相關\source code\20210129\device\ht66f70a\wind_speed\wind_speed.c"
 316  0028              #pragma debug scope 1 1
 316  0028              public _crc_cal
 316  0028              #pragma debug scope 6 1
 323  0028              #line 323 "c:\users\bill\desktop\軒哥論文相關\source code\20210129\device\ht66f70a\wind_speed\wind_speed.c"
 323  0000              _crc_cal .section 'code'
 323  0000              _crc_cal proc
 332  0000              #line 332 "c:\users\bill\desktop\軒哥論文相關\source code\20210129\device\ht66f70a\wind_speed\wind_speed.c"
 332  0000  0700     R  	mov a,_TransmitData[4]
 332  0001  0080     E  	mov rb,a
"File: wind_speed.c  Assembler  Version HGASM0202      Page 8

 332  0002  1F00     E  	clr rc
 332  0003  0700     R  	mov a,_TransmitData[3]
 332  0004  0380     E  	addm a,rb
 332  0005  3C0A        	sz c
 332  0006  1480     E  	inc rc
 333  0007              #line 333 "c:\users\bill\desktop\軒哥論文相關\source code\20210129\device\ht66f70a\wind_speed\wind_speed.c"
 333  0007  0F13        	mov a,19
 333  0008  0380     E  	addm a,rb
 333  0009  0F00        	mov a,0
 333  000A  1380     E  	adcm a,rc
 334  000B              #line 334 "c:\users\bill\desktop\軒哥論文相關\source code\20210129\device\ht66f70a\wind_speed\wind_speed.c"
 334  000B  0700     R  	mov a,_TransmitData[5]
 334  000C  0380     E  	addm a,rb
 334  000D  3C0A        	sz c
 334  000E  1480     E  	inc rc
 335  000F              #line 335 "c:\users\bill\desktop\軒哥論文相關\source code\20210129\device\ht66f70a\wind_speed\wind_speed.c"
 335  000F  0700     R  	mov a,_TransmitData[8]
 335  0010  0380     E  	addm a,rb
 335  0011  3C0A        	sz c
 335  0012  1480     E  	inc rc
 336  0013              #line 336 "c:\users\bill\desktop\軒哥論文相關\source code\20210129\device\ht66f70a\wind_speed\wind_speed.c"
 336  0013  0700     R  	mov a,_TransmitData[9]
 336  0014  0380     E  	addm a,rb
 336  0015  3C0A        	sz c
 336  0016  1480     E  	inc rc
 336  0017  0F0A        	mov a,10
 336  0018  0080     E  	mov rd,a
 336  0019  1F00     E  	clr re
 336  001A              _L39:
 340  001A              #line 340 "c:\users\bill\desktop\軒哥論文相關\source code\20210129\device\ht66f70a\wind_speed\wind_speed.c"
 340  001A  0F00     R  	mov a,low offset _TransmitData
 340  001B  0300     E  	add a,rd
 340  001C  0083        	mov mp,a
 340  001D  0F00     R  	mov a,high offset _TransmitData
 340  001E  1300     E  	adc a,re
 340  001F  0084        	mov sbp,a
 340  0020              	fcall _Crom2Prom
 340  0027  0080     E  	mov ra,a
 340  0028  0700     E  	mov a,ra
 340  0029  0380     E  	addm a,rb
 340  002A  3C0A        	sz c
 340  002B  1480     E  	inc rc
 338  002C              #line 338 "c:\users\bill\desktop\軒哥論文相關\source code\20210129\device\ht66f70a\wind_speed\wind_speed.c"
 338  002C  1480     E  	inc rd
 338  002D  3D0A        	sz z
 338  002E  1480     E  	inc re
 338  002F  0F13        	mov a,19
 338  0030  0200     E  	sub a,rd
 338  0031  0F00        	mov a,0
 338  0032  1200     E  	sbc a,re
 338  0033  3C0A        	sz c
 338  0034  2800     R  	jmp _L39
 338  0035  0700     E  	mov a,rd
 338  0036  0080     R  	mov _i[0],a
 338  0037  0700     E  	mov a,re
 338  0038  0080     R  	mov _i[1],a
 342  0039              #line 342 "c:\users\bill\desktop\軒哥論文相關\source code\20210129\device\ht66f70a\wind_speed\wind_speed.c"
 342  0039  0100     E  	cpla rb
 342  003A  0080     R  	mov _crc[0],a
 342  003B  0003        	ret
"File: wind_speed.c  Assembler  Version HGASM0202      Page 9

 342  003C              _crc_cal endp
 342  003C              #line 342 "c:\users\bill\desktop\軒哥論文相關\source code\20210129\device\ht66f70a\wind_speed\wind_speed.c"
 342  003C              #pragma debug scope 1 1
 342  003C              ___tm0c0 equ [94]
 342  003C              ___tm0c1 equ [95]
 342  003C              ___tm0al equ [98]
 342  003C              ___tm0ah equ [99]
 342  003C              ___intc1 equ [49]
 342  003C              ___mfi0 equ [52]
 342  003C              ___intc0 equ [48]
 342  003C              ___pdc equ [31]
 342  003C              ___pd equ [30]
 342  003C              ___pas2 equ [354]
 342  003C              ___adcr1 equ [105]
 342  003C              ___wdtc equ [62]
 342  003C              ___pcc equ [27]
 342  003C              public _main
 342  003C              #pragma debug scope 7 1
  61  003C              #line 61 "c:\users\bill\desktop\軒哥論文相關\source code\20210129\device\ht66f70a\wind_speed\wind_speed.c"
  61  003C              IFDEF WITH_DEFAULT_STARTUP
  61  003C              extern _main_initial0:near
  61  003C              extern _main_startup:near
  61  003C              ENDIF
  61  003C              
  61  003C              ROMBANK 0 @start
  61  0000              @start .section com_l 'code'
  61  0000              _main_startup1:
  61  0000              @start .section com_e 'code'
  61  0000  0F00     R  	mov a,bank _main
  61  0001  008B        	mov bp,a
  61  0002  2800     R  	jmp _main
  61  0003              
  61  0000              _main .section 'code'
  61  0000              _main proc
  63  0000              #line 63 "c:\users\bill\desktop\軒哥論文相關\source code\20210129\device\ht66f70a\wind_speed\wind_speed.c"
  63  0000  0F20        	mov a,32
  63  0001  00DE        	mov [94],a
  64  0002              #line 64 "c:\users\bill\desktop\軒哥論文相關\source code\20210129\device\ht66f70a\wind_speed\wind_speed.c"
  64  0002  0FC1        	mov a,193
  64  0003  00DF        	mov [95],a
  65  0004              #line 65 "c:\users\bill\desktop\軒哥論文相關\source code\20210129\device\ht66f70a\wind_speed\wind_speed.c"
  65  0004  0FE8        	mov a,232
  65  0005  00E2        	mov [98],a
  66  0006              #line 66 "c:\users\bill\desktop\軒哥論文相關\source code\20210129\device\ht66f70a\wind_speed\wind_speed.c"
  66  0006  0F03        	mov a,3
  66  0007  00E3        	mov [99],a
  68  0008              #line 68 "c:\users\bill\desktop\軒哥論文相關\source code\20210129\device\ht66f70a\wind_speed\wind_speed.c"
  68  0008  30B1        	set [49].1
  69  0009              #line 69 "c:\users\bill\desktop\軒哥論文相關\source code\20210129\device\ht66f70a\wind_speed\wind_speed.c"
  69  0009  30B4        	set [52].1
  70  000A              #line 70 "c:\users\bill\desktop\軒哥論文相關\source code\20210129\device\ht66f70a\wind_speed\wind_speed.c"
  70  000A  3030        	set [48].0
  71  000B              #line 71 "c:\users\bill\desktop\軒哥論文相關\source code\20210129\device\ht66f70a\wind_speed\wind_speed.c"
  71  000B  36B4        	clr [52].5
  72  000C              #line 72 "c:\users\bill\desktop\軒哥論文相關\source code\20210129\device\ht66f70a\wind_speed\wind_speed.c"
  72  000C  36B1        	clr [49].5
  73  000D              #line 73 "c:\users\bill\desktop\軒哥論文相關\source code\20210129\device\ht66f70a\wind_speed\wind_speed.c"
  73  000D  0FF4        	mov a,-12
  73  000E  0080     R  	mov _CTM_Count1[0],a
  73  000F  0F01        	mov a,1
"File: wind_speed.c  Assembler  Version HGASM0202      Page 10

  73  0010  0080     R  	mov _CTM_Count1[1],a
  75  0011              #line 75 "c:\users\bill\desktop\軒哥論文相關\source code\20210129\device\ht66f70a\wind_speed\wind_speed.c"
  75  0011  1F1F        	clr [31]
  76  0012              #line 76 "c:\users\bill\desktop\軒哥論文相關\source code\20210129\device\ht66f70a\wind_speed\wind_speed.c"
  76  0012  1F1E        	clr [30]
  78  0013              #line 78 "c:\users\bill\desktop\軒哥論文相關\source code\20210129\device\ht66f70a\wind_speed\wind_speed.c"
  78  0013  0F03        	mov a,3
  78  0014  80E2 0001   	lmov [354],a
  79  0016              #line 79 "c:\users\bill\desktop\軒哥論文相關\source code\20210129\device\ht66f70a\wind_speed\wind_speed.c"
  79  0016  0F04        	mov a,4
  79  0017  00E8        	mov [104],a
  80  0018              #line 80 "c:\users\bill\desktop\軒哥論文相關\source code\20210129\device\ht66f70a\wind_speed\wind_speed.c"
  80  0018  0F26        	mov a,38
  80  0019  00E9        	mov [105],a
  82  001A              #line 82 "c:\users\bill\desktop\軒哥論文相關\source code\20210129\device\ht66f70a\wind_speed\wind_speed.c"
  82  001A  31B1        	set [49].3
  83  001B              #line 83 "c:\users\bill\desktop\軒哥論文相關\source code\20210129\device\ht66f70a\wind_speed\wind_speed.c"
  83  001B  3030        	set [48].0
  84  001C              #line 84 "c:\users\bill\desktop\軒哥論文相關\source code\20210129\device\ht66f70a\wind_speed\wind_speed.c"
  84  001C  33E8        	set [104].7
  85  001D              #line 85 "c:\users\bill\desktop\軒哥論文相關\source code\20210129\device\ht66f70a\wind_speed\wind_speed.c"
  85  001D  37E8        	clr [104].7
  87  001E              #line 87 "c:\users\bill\desktop\軒哥論文相關\source code\20210129\device\ht66f70a\wind_speed\wind_speed.c"
  87  001E  31DE        	set [94].3
  88  001F              #line 88 "c:\users\bill\desktop\軒哥論文相關\source code\20210129\device\ht66f70a\wind_speed\wind_speed.c"
  88  001F  0F57        	mov a,87
  88  0020  00BE        	mov [62],a
  90  0021              #line 90 "c:\users\bill\desktop\軒哥論文相關\source code\20210129\device\ht66f70a\wind_speed\wind_speed.c"
  90  0021  351B        	clr [27].2
  91  0022              #line 91 "c:\users\bill\desktop\軒哥論文相關\source code\20210129\device\ht66f70a\wind_speed\wind_speed.c"
  91  0022  319B        	set [27].3
  92  0023              #line 92 "c:\users\bill\desktop\軒哥論文相關\source code\20210129\device\ht66f70a\wind_speed\wind_speed.c"
  92  0023  311A        	set [26].2
  93  0024              #line 93 "c:\users\bill\desktop\軒哥論文相關\source code\20210129\device\ht66f70a\wind_speed\wind_speed.c"
  93  0024  0F27        	mov a,39
  93  0025  0080     R  	mov _BaudRate[0],a
  95  0026              #line 95 "c:\users\bill\desktop\軒哥論文相關\source code\20210129\device\ht66f70a\wind_speed\wind_speed.c"
  95  0026  1F00     R  	clr _ZigbeeREG_Const[0]
  97  0027              #line 97 "c:\users\bill\desktop\軒哥論文相關\source code\20210129\device\ht66f70a\wind_speed\wind_speed.c"
  97  0027  0F7E        	mov a,126
  97  0028  0080     R  	mov _TransmitData[0],a
  98  0029              #line 98 "c:\users\bill\desktop\軒哥論文相關\source code\20210129\device\ht66f70a\wind_speed\wind_speed.c"
  98  0029  1F00     R  	clr _TransmitData[1]
  99  002A              #line 99 "c:\users\bill\desktop\軒哥論文相關\source code\20210129\device\ht66f70a\wind_speed\wind_speed.c"
  99  002A  0F10        	mov a,16
  99  002B  0080     R  	mov _TransmitData[2],a
 100  002C              #line 100 "c:\users\bill\desktop\軒哥論文相關\source code\20210129\device\ht66f70a\wind_speed\wind_speed.c"
 100  002C  0F10        	mov a,16
 100  002D  0080     R  	mov _TransmitData[3],a
 101  002E              #line 101 "c:\users\bill\desktop\軒哥論文相關\source code\20210129\device\ht66f70a\wind_speed\wind_speed.c"
 101  002E  0F01        	mov a,1
 101  002F  0080     R  	mov _TransmitData[4],a
 102  0030              #line 102 "c:\users\bill\desktop\軒哥論文相關\source code\20210129\device\ht66f70a\wind_speed\wind_speed.c"
 102  0030  1F00     R  	clr _TransmitData[5]
 103  0031              #line 103 "c:\users\bill\desktop\軒哥論文相關\source code\20210129\device\ht66f70a\wind_speed\wind_speed.c"
 103  0031  0F7D        	mov a,125
 103  0032  0080     R  	mov _TransmitData[6],a
 104  0033              #line 104 "c:\users\bill\desktop\軒哥論文相關\source code\20210129\device\ht66f70a\wind_speed\wind_speed.c"
 104  0033  0F33        	mov a,51
 104  0034  0080     R  	mov _TransmitData[7],a
"File: wind_speed.c  Assembler  Version HGASM0202      Page 11

 105  0035              #line 105 "c:\users\bill\desktop\軒哥論文相關\source code\20210129\device\ht66f70a\wind_speed\wind_speed.c"
 105  0035  0FA2        	mov a,162
 105  0036  0080     R  	mov _TransmitData[8],a
 106  0037              #line 106 "c:\users\bill\desktop\軒哥論文相關\source code\20210129\device\ht66f70a\wind_speed\wind_speed.c"
 106  0037  1F00     R  	clr _TransmitData[9]
 107  0038              #line 107 "c:\users\bill\desktop\軒哥論文相關\source code\20210129\device\ht66f70a\wind_speed\wind_speed.c"
 107  0038  0F40        	mov a,64
 107  0039  0080     R  	mov _TransmitData[10],a
 108  003A              #line 108 "c:\users\bill\desktop\軒哥論文相關\source code\20210129\device\ht66f70a\wind_speed\wind_speed.c"
 108  003A  0FE6        	mov a,230
 108  003B  0080     R  	mov _TransmitData[11],a
 109  003C              #line 109 "c:\users\bill\desktop\軒哥論文相關\source code\20210129\device\ht66f70a\wind_speed\wind_speed.c"
 109  003C  0F6E        	mov a,110
 109  003D  0080     R  	mov _TransmitData[12],a
 110  003E              #line 110 "c:\users\bill\desktop\軒哥論文相關\source code\20210129\device\ht66f70a\wind_speed\wind_speed.c"
 110  003E  0F6A        	mov a,106
 110  003F  0080     R  	mov _TransmitData[13],a
 111  0040              #line 111 "c:\users\bill\desktop\軒哥論文相關\source code\20210129\device\ht66f70a\wind_speed\wind_speed.c"
 111  0040  1F80     R  	set _TransmitData[14]
 112  0041              #line 112 "c:\users\bill\desktop\軒哥論文相關\source code\20210129\device\ht66f70a\wind_speed\wind_speed.c"
 112  0041  0FFE        	mov a,254
 112  0042  0080     R  	mov _TransmitData[15],a
 113  0043              #line 113 "c:\users\bill\desktop\軒哥論文相關\source code\20210129\device\ht66f70a\wind_speed\wind_speed.c"
 113  0043  1F00     R  	clr _TransmitData[16]
 114  0044              #line 114 "c:\users\bill\desktop\軒哥論文相關\source code\20210129\device\ht66f70a\wind_speed\wind_speed.c"
 114  0044  1F00     R  	clr _TransmitData[17]
 115  0045              #line 115 "c:\users\bill\desktop\軒哥論文相關\source code\20210129\device\ht66f70a\wind_speed\wind_speed.c"
 115  0045  0F01        	mov a,1
 115  0046  0080     R  	mov _TransmitData[18],a
 116  0047              #line 116 "c:\users\bill\desktop\軒哥論文相關\source code\20210129\device\ht66f70a\wind_speed\wind_speed.c"
 116  0047  0700     R  	mov a,_WindSpeed_Class[0]
 116  0048  0080     R  	mov _TransmitData[19],a
 119  0049              #line 119 "c:\users\bill\desktop\軒哥論文相關\source code\20210129\device\ht66f70a\wind_speed\wind_speed.c"
 119  0049              	fcall _crc_cal
 120  0050              #line 120 "c:\users\bill\desktop\軒哥論文相關\source code\20210129\device\ht66f70a\wind_speed\wind_speed.c"
 120  0050  0700     R  	mov a,_crc[0]
 120  0051  0080     R  	mov _TransmitData[20],a
 120  0052              _L42:
 120  0052  2800     R  	jmp _L42
 120  0053  2800     R  	jmp $
 120  0054              _main endp
 120  0054              
 120  0054              @dummy endp
 120  0054              
 120  0054              #line 120 "c:\users\bill\desktop\軒哥論文相關\source code\20210129\device\ht66f70a\wind_speed\wind_speed.c"
 120  0054              #pragma debug scope 1 1
 120  0054              public _ISR_TM0
 120  0054              #pragma debug scope 8 1
 130  0054              #line 130 "c:\users\bill\desktop\軒哥論文相關\source code\20210129\device\ht66f70a\wind_speed\wind_speed.c"
 130  0054              rombank 0 @ISR_TM0_code
 130  0000              @ISR_TM0_code .section at 20 'code'
 130  0000  0080     E  	mov r1,a
 130  0001  070B        	mov a,bp
 130  0002  1F0B        	clr bp
 130  0003  2800     R  	jmp _ISR_TM0
 130  0004              ROMBANK 0 _ISR_TM0
 130  0004              #pragma debug scope 1 1
 130  0004              @dummy20 endp
 130  0004              #pragma debug scope 9 1
 130  0000              _ISR_TM0 .section 'code'
"File: wind_speed.c  Assembler  Version HGASM0202      Page 12

 130  0000              _ISR_TM0 proc
 130  0000  0080     E  	mov r2,a
 130  0001  070A        	mov a, status
 130  0002  0080     E  	mov r3,a
 130  0003  0703        	mov a,mp
 130  0004  0080     E  	mov r4,a
 130  0005  0704        	mov a,sbp
 130  0006  0080     E  	mov r5,a
 130  0007  0707        	mov a,tblp
 130  0008  0080     E  	mov r6,a
 130  0009  0709        	mov a,tbhp
 130  000A  0080     E  	mov r7,a
 131  000B              #line 131 "c:\users\bill\desktop\軒哥論文相關\source code\20210129\device\ht66f70a\wind_speed\wind_speed.c"
 131  000B  0FFF        	mov a,255
 131  000C  0380     R  	addm a,_CTM_Count1[0]
 131  000D  0FFF        	mov a,255
 131  000E  1380     R  	adcm a,_CTM_Count1[1]
 132  000F              #line 132 "c:\users\bill\desktop\軒哥論文相關\source code\20210129\device\ht66f70a\wind_speed\wind_speed.c"
 132  000F              ;# 132 "c:\users\bill\desktop\軒哥論文相關\source code\20210129\device\ht66f70a\wind_speed\wind_speed.c" 1
 132  000F  0001        	clr wdt1
 132  0010              _L44:
 133  0010              #line 133 "c:\users\bill\desktop\軒哥論文相關\source code\20210129\device\ht66f70a\wind_speed\wind_speed.c"
 133  0010  0700     R  	mov a,_CTM_Count1[0]
 133  0011  0500     R  	or a,_CTM_Count1[1]
 133  0012  390A        	snz z
 133  0013  2800     R  	jmp _L61
 135  0014              #line 135 "c:\users\bill\desktop\軒哥論文相關\source code\20210129\device\ht66f70a\wind_speed\wind_speed.c"
 135  0014  0FF4        	mov a,-12
 135  0015  0080     R  	mov _CTM_Count1[0],a
 135  0016  0F01        	mov a,1
 135  0017  0080     R  	mov _CTM_Count1[1],a
 137  0018              #line 137 "c:\users\bill\desktop\軒哥論文相關\source code\20210129\device\ht66f70a\wind_speed\wind_speed.c"
 137  0018              ;# 137 "c:\users\bill\desktop\軒哥論文相關\source code\20210129\device\ht66f70a\wind_speed\wind_speed.c" 1
 137  0018  0001        	clr wdt1
 138  0019              #line 138 "c:\users\bill\desktop\軒哥論文相關\source code\20210129\device\ht66f70a\wind_speed\wind_speed.c"
 138  0019  33E8        	set [104].7
 139  001A              #line 139 "c:\users\bill\desktop\軒哥論文相關\source code\20210129\device\ht66f70a\wind_speed\wind_speed.c"
 139  001A              ;# 139 "c:\users\bill\desktop\軒哥論文相關\source code\20210129\device\ht66f70a\wind_speed\wind_speed.c" 1
 139  001A              	IF 200000>263690
 139  001A              ;# 139 "c:\users\bill\desktop\軒哥論文相關\source code\20210129\device\ht66f70a\wind_speed\wind_speed.c" 1
 139  001A              	ERRMESSAGE 'the value 200000of the argument exceeds the maxinum 263690'
 139  001A              	ENDIF
 139  001A              ;# 139 "c:\users\bill\desktop\軒哥論文相關\source code\20210129\device\ht66f70a\wind_speed\wind_speed.c" 1
 139  001A              	IF 200000<0
 139  001A              ;# 139 "c:\users\bill\desktop\軒哥論文相關\source code\20210129\device\ht66f70a\wind_speed\wind_speed.c" 1
 139  001A              	ERRMESSAGE 'the value 200000 of the argument exceeds the mininum 0'
 139  001A              	ENDIF
 139  001A              ;# 139 "c:\users\bill\desktop\軒哥論文相關\source code\20210129\device\ht66f70a\wind_speed\wind_speed.c" 1
 139  001A              	IF 200000==0
 139  001A              ;# 139 "c:\users\bill\desktop\軒哥論文相關\source code\20210129\device\ht66f70a\wind_speed\wind_speed.c" 1
 139  001A              	JMP $
 139  001A              	ENDIF
 139  001A              ;# 139 "c:\users\bill\desktop\軒哥論文相關\source code\20210129\device\ht66f70a\wind_speed\wind_speed.c" 1
 139  001A              	IF (200000>=1) AND (200000<( 4 + __PBP__ * 2))
 139  001A              ;# 139 "c:\users\bill\desktop\軒哥論文相關\source code\20210129\device\ht66f70a\wind_speed\wind_speed.c" 1
 139  001A              	NOP
 139  001A              	ENDIF
 139  001A              ;# 139 "c:\users\bill\desktop\軒哥論文相關\source code\20210129\device\ht66f70a\wind_speed\wind_speed.c" 1
 139  001A              	IF (200000>=2) AND (200000<( 4 + __PBP__ * 2))
 139  001A              ;# 139 "c:\users\bill\desktop\軒哥論文相關\source code\20210129\device\ht66f70a\wind_speed\wind_speed.c" 1
"File: wind_speed.c  Assembler  Version HGASM0202      Page 13

 139  001A              	NOP
 139  001A              	ENDIF
 139  001A              ;# 139 "c:\users\bill\desktop\軒哥論文相關\source code\20210129\device\ht66f70a\wind_speed\wind_speed.c" 1
 139  001A              	IF (200000>=3) AND (200000<( 4 + __PBP__ * 2))
 139  001A              ;# 139 "c:\users\bill\desktop\軒哥論文相關\source code\20210129\device\ht66f70a\wind_speed\wind_speed.c" 1
 139  001A              	NOP
 139  001A              	ENDIF
 139  001A              ;# 139 "c:\users\bill\desktop\軒哥論文相關\source code\20210129\device\ht66f70a\wind_speed\wind_speed.c" 1
 139  001A              	IF (200000>=4) AND (200000<( 4 + __PBP__ * 2)) AND ( __PBP__ > 0 )
 139  001A              ;# 139 "c:\users\bill\desktop\軒哥論文相關\source code\20210129\device\ht66f70a\wind_speed\wind_speed.c" 1
 139  001A              	NOP
 139  001A              	ENDIF
 139  001A              ;# 139 "c:\users\bill\desktop\軒哥論文相關\source code\20210129\device\ht66f70a\wind_speed\wind_speed.c" 1
 139  001A              	IF (200000>=5) AND (200000<( 4 + __PBP__ * 2)) AND ( __PBP__ > 0 )
 139  001A              ;# 139 "c:\users\bill\desktop\軒哥論文相關\source code\20210129\device\ht66f70a\wind_speed\wind_speed.c" 1
 139  001A              	NOP
 139  001A              	ENDIF
 139  001A              ;# 139 "c:\users\bill\desktop\軒哥論文相關\source code\20210129\device\ht66f70a\wind_speed\wind_speed.c" 1
 139  001A              	IF (200000>=6) AND (200000<( 4 + __PBP__ * 2))  AND ( __PBP__ > 1 )
 139  001A              ;# 139 "c:\users\bill\desktop\軒哥論文相關\source code\20210129\device\ht66f70a\wind_speed\wind_speed.c" 1
 139  001A              	NOP
 139  001A              	ENDIF
 139  001A              ;# 139 "c:\users\bill\desktop\軒哥論文相關\source code\20210129\device\ht66f70a\wind_speed\wind_speed.c" 1
 139  001A              	IF (200000>=7) AND (200000<( 4 + __PBP__ * 2))  AND ( __PBP__ > 1 )
 139  001A              ;# 139 "c:\users\bill\desktop\軒哥論文相關\source code\20210129\device\ht66f70a\wind_speed\wind_speed.c" 1
 139  001A              	NOP
 139  001A              	ENDIF
 139  001A              ;# 139 "c:\users\bill\desktop\軒哥論文相關\source code\20210129\device\ht66f70a\wind_speed\wind_speed.c" 1
 139  001A              	IF (200000>=8) AND (200000<( 4 + __PBP__ * 2))  AND ( __PBP__ > 2 )
 139  001A              ;# 139 "c:\users\bill\desktop\軒哥論文相關\source code\20210129\device\ht66f70a\wind_speed\wind_speed.c" 1
 139  001A              	NOP
 139  001A              	ENDIF
 139  001A              ;# 139 "c:\users\bill\desktop\軒哥論文相關\source code\20210129\device\ht66f70a\wind_speed\wind_speed.c" 1
 139  001A              	IF (200000==9)  AND ( __PBP__ > 2 )
 139  001A              ;# 139 "c:\users\bill\desktop\軒哥論文相關\source code\20210129\device\ht66f70a\wind_speed\wind_speed.c" 1
 139  001A              	NOP
 139  001A              	ENDIF
 139  001A              ;# 139 "c:\users\bill\desktop\軒哥論文相關\source code\20210129\device\ht66f70a\wind_speed\wind_speed.c" 1
 139  001A              	IF (200000< ( 8 + __PBP__ * 2)) AND (200000>( 3 + __PBP__ * 2))
 139  001A              ;# 139 "c:\users\bill\desktop\軒哥論文相關\source code\20210129\device\ht66f70a\wind_speed\wind_speed.c" 1
 139  001A              	fcall __DELAY3 + ( 7 + __PBP__ * 2) -200000
 139  001A              	ENDIF
 139  001A              ;# 139 "c:\users\bill\desktop\軒哥論文相關\source code\20210129\device\ht66f70a\wind_speed\wind_speed.c" 1
 139  001A              	IF (200000< ( 0404h + __PBP__ * 2)) AND (200000>( 7 + __PBP__ * 2))
 139  001A              ;# 139 "c:\users\bill\desktop\軒哥論文相關\source code\20210129\device\ht66f70a\wind_speed\wind_speed.c" 1
 139  001A              	MOV A,(200000-( 4 + __PBP__ * 2))/4
 139  001A              ;# 139 "c:\users\bill\desktop\軒哥論文相關\source code\20210129\device\ht66f70a\wind_speed\wind_speed.c" 1
 139  001A              	fcall __DELAYX3 + 3 -((200000-( 4 + __PBP__ * 2)) MOD 4) 
 139  001A              	ENDIF
 139  001A              ;# 139 "c:\users\bill\desktop\軒哥論文相關\source code\20210129\device\ht66f70a\wind_speed\wind_speed.c" 1
 139  001A              	IF (200000< ( 040bh + __PBP__ * 2)) AND (200000> ( 0403h + __PBP__ * 2))
 139  001A              ;# 139 "c:\users\bill\desktop\軒哥論文相關\source code\20210129\device\ht66f70a\wind_speed\wind_speed.c" 1
 139  001A              	MOV A,0 
 139  001A              ;# 139 "c:\users\bill\desktop\軒哥論文相關\source code\20210129\device\ht66f70a\wind_speed\wind_speed.c" 1
 139  001A              	fcall __DELAYX6 + ( 040ah + __PBP__ * 2) -200000
 139  001A              	ENDIF
 139  001A              ;# 139 "c:\users\bill\desktop\軒哥論文相關\source code\20210129\device\ht66f70a\wind_speed\wind_speed.c" 1
 139  001A              	IF (200000 >= ( 040bh + __PBP__ * 2)) AND ((((200000-( 9 + __PBP__ * 2))%0402h)/4+1)>256)
 139  001A              ;# 139 "c:\users\bill\desktop\軒哥論文相關\source code\20210129\device\ht66f70a\wind_speed\wind_speed.c" 1
 139  001A              	MOV A,(200000-( 9 + __PBP__ * 2))/0402h
"File: wind_speed.c  Assembler  Version HGASM0202      Page 14

 139  001A              ;# 139 "c:\users\bill\desktop\軒哥論文相關\source code\20210129\device\ht66f70a\wind_speed\wind_speed.c" 1
 139  001A              	MOV _builtin_holtek_delay_2,A
 139  001A              ;# 139 "c:\users\bill\desktop\軒哥論文相關\source code\20210129\device\ht66f70a\wind_speed\wind_speed.c" 1
 139  001A              	MOV A,0
 139  001A              ;# 139 "c:\users\bill\desktop\軒哥論文相關\source code\20210129\device\ht66f70a\wind_speed\wind_speed.c" 1
 139  001A              	fcall __DELAYY5 +5- (((200000-( 9 + __PBP__ * 2))%0402h)%6) 
 139  001A              	ENDIF
 139  001A              ;# 139 "c:\users\bill\desktop\軒哥論文相關\source code\20210129\device\ht66f70a\wind_speed\wind_speed.c" 1
 139  001A              	IF (200000 >= ( 040bh + __PBP__ * 2)) AND ((((200000-( 9 + __PBP__ * 2))%0402h)/4+1)<=256)
 139  001A              ;# 139 "c:\users\bill\desktop\軒哥論文相關\source code\20210129\device\ht66f70a\wind_speed\wind_speed.c" 1
 139  001A  0FC2        	MOV A,(200000-( 9 + __PBP__ * 2))/0402h
 139  001B              ;# 139 "c:\users\bill\desktop\軒哥論文相關\source code\20210129\device\ht66f70a\wind_speed\wind_speed.c" 1
 139  001B  0080     E  	MOV _builtin_holtek_delay_2,A
 139  001C              ;# 139 "c:\users\bill\desktop\軒哥論文相關\source code\20210129\device\ht66f70a\wind_speed\wind_speed.c" 1
 139  001C  0FEC        	MOV A,((200000-( 9 + __PBP__ * 2))%0402h)/4+1
 139  001D              ;# 139 "c:\users\bill\desktop\軒哥論文相關\source code\20210129\device\ht66f70a\wind_speed\wind_speed.c" 1
 139  001D              	fcall __DELAYY3 +3-(((200000-( 9 + __PBP__ * 2))%0402h)%4) 
 139  0024              	ENDIF
 142  0024              #line 142 "c:\users\bill\desktop\軒哥論文相關\source code\20210129\device\ht66f70a\wind_speed\wind_speed.c"
 142  0024  0700     R  	mov a,_ADR[0]
 142  0025  0080     E  	mov rb,a
 142  0026  0700     R  	mov a,_ADR[1]
 142  0027  0080     E  	mov rc,a
 142  0028  0F4C        	mov a,76
 142  0029  0200     E  	sub a,rb
 142  002A  0F04        	mov a,4
 142  002B  1200     E  	sbc a,rc
 142  002C  3C0A        	sz c
 142  002D  2800     R  	jmp _L45
 144  002E              #line 144 "c:\users\bill\desktop\軒哥論文相關\source code\20210129\device\ht66f70a\wind_speed\wind_speed.c"
 144  002E  1F9E        	set [30]
 145  002F              #line 145 "c:\users\bill\desktop\軒哥論文相關\source code\20210129\device\ht66f70a\wind_speed\wind_speed.c"
 145  002F  0F09        	mov a,9
 145  0030  0080     R  	mov _WindSpeed_Class[0],a
 145  0031  1F00     R  	clr _WindSpeed_Class[1]
 145  0032  2800     R  	jmp _L46
 145  0033              _L45:
 148  0033              #line 148 "c:\users\bill\desktop\軒哥論文相關\source code\20210129\device\ht66f70a\wind_speed\wind_speed.c"
 148  0033  0FE8        	mov a,232
 148  0034  0200     E  	sub a,rb
 148  0035  0F03        	mov a,3
 148  0036  1200     E  	sbc a,rc
 148  0037  3C0A        	sz c
 148  0038  2800     R  	jmp _L47
 150  0039              #line 150 "c:\users\bill\desktop\軒哥論文相關\source code\20210129\device\ht66f70a\wind_speed\wind_speed.c"
 150  0039  1F9E        	set [30]
 151  003A              #line 151 "c:\users\bill\desktop\軒哥論文相關\source code\20210129\device\ht66f70a\wind_speed\wind_speed.c"
 151  003A  0F08        	mov a,8
 151  003B  0080     R  	mov _WindSpeed_Class[0],a
 151  003C  1F00     R  	clr _WindSpeed_Class[1]
 151  003D  2800     R  	jmp _L46
 151  003E              _L47:
 154  003E              #line 154 "c:\users\bill\desktop\軒哥論文相關\source code\20210129\device\ht66f70a\wind_speed\wind_speed.c"
 154  003E  0F84        	mov a,132
 154  003F  0200     E  	sub a,rb
 154  0040  0F03        	mov a,3
 154  0041  1200     E  	sbc a,rc
 154  0042  3C0A        	sz c
 154  0043  2800     R  	jmp _L48
 156  0044              #line 156 "c:\users\bill\desktop\軒哥論文相關\source code\20210129\device\ht66f70a\wind_speed\wind_speed.c"
"File: wind_speed.c  Assembler  Version HGASM0202      Page 15

 156  0044  0F7F        	mov a,127
 156  0045  009E        	mov [30],a
 157  0046              #line 157 "c:\users\bill\desktop\軒哥論文相關\source code\20210129\device\ht66f70a\wind_speed\wind_speed.c"
 157  0046  0F07        	mov a,7
 157  0047  0080     R  	mov _WindSpeed_Class[0],a
 157  0048  1F00     R  	clr _WindSpeed_Class[1]
 157  0049  2800     R  	jmp _L46
 157  004A              _L48:
 160  004A              #line 160 "c:\users\bill\desktop\軒哥論文相關\source code\20210129\device\ht66f70a\wind_speed\wind_speed.c"
 160  004A  0F20        	mov a,32
 160  004B  0200     E  	sub a,rb
 160  004C  0F03        	mov a,3
 160  004D  1200     E  	sbc a,rc
 160  004E  3C0A        	sz c
 160  004F  2800     R  	jmp _L49
 162  0050              #line 162 "c:\users\bill\desktop\軒哥論文相關\source code\20210129\device\ht66f70a\wind_speed\wind_speed.c"
 162  0050  0F3F        	mov a,63
 162  0051  009E        	mov [30],a
 163  0052              #line 163 "c:\users\bill\desktop\軒哥論文相關\source code\20210129\device\ht66f70a\wind_speed\wind_speed.c"
 163  0052  0F06        	mov a,6
 163  0053  0080     R  	mov _WindSpeed_Class[0],a
 163  0054  1F00     R  	clr _WindSpeed_Class[1]
 163  0055  2800     R  	jmp _L46
 163  0056              _L49:
 166  0056              #line 166 "c:\users\bill\desktop\軒哥論文相關\source code\20210129\device\ht66f70a\wind_speed\wind_speed.c"
 166  0056  0FBC        	mov a,188
 166  0057  0200     E  	sub a,rb
 166  0058  0F02        	mov a,2
 166  0059  1200     E  	sbc a,rc
 166  005A  3C0A        	sz c
 166  005B  2800     R  	jmp _L50
 168  005C              #line 168 "c:\users\bill\desktop\軒哥論文相關\source code\20210129\device\ht66f70a\wind_speed\wind_speed.c"
 168  005C  0F1F        	mov a,31
 168  005D  009E        	mov [30],a
 169  005E              #line 169 "c:\users\bill\desktop\軒哥論文相關\source code\20210129\device\ht66f70a\wind_speed\wind_speed.c"
 169  005E  0F05        	mov a,5
 169  005F  0080     R  	mov _WindSpeed_Class[0],a
 169  0060  1F00     R  	clr _WindSpeed_Class[1]
 169  0061  2800     R  	jmp _L46
 169  0062              _L50:
 172  0062              #line 172 "c:\users\bill\desktop\軒哥論文相關\source code\20210129\device\ht66f70a\wind_speed\wind_speed.c"
 172  0062  0F58        	mov a,88
 172  0063  0200     E  	sub a,rb
 172  0064  0F02        	mov a,2
 172  0065  1200     E  	sbc a,rc
 172  0066  3C0A        	sz c
 172  0067  2800     R  	jmp _L51
 174  0068              #line 174 "c:\users\bill\desktop\軒哥論文相關\source code\20210129\device\ht66f70a\wind_speed\wind_speed.c"
 174  0068  0F0F        	mov a,15
 174  0069  009E        	mov [30],a
 175  006A              #line 175 "c:\users\bill\desktop\軒哥論文相關\source code\20210129\device\ht66f70a\wind_speed\wind_speed.c"
 175  006A  0F04        	mov a,4
 175  006B  0080     R  	mov _WindSpeed_Class[0],a
 175  006C  1F00     R  	clr _WindSpeed_Class[1]
 175  006D  2800     R  	jmp _L46
 175  006E              _L51:
 178  006E              #line 178 "c:\users\bill\desktop\軒哥論文相關\source code\20210129\device\ht66f70a\wind_speed\wind_speed.c"
 178  006E  0FF4        	mov a,244
 178  006F  0200     E  	sub a,rb
 178  0070  0F01        	mov a,1
"File: wind_speed.c  Assembler  Version HGASM0202      Page 16

 178  0071  1200     E  	sbc a,rc
 178  0072  3C0A        	sz c
 178  0073  2800     R  	jmp _L52
 180  0074              #line 180 "c:\users\bill\desktop\軒哥論文相關\source code\20210129\device\ht66f70a\wind_speed\wind_speed.c"
 180  0074  0F07        	mov a,7
 180  0075  009E        	mov [30],a
 181  0076              #line 181 "c:\users\bill\desktop\軒哥論文相關\source code\20210129\device\ht66f70a\wind_speed\wind_speed.c"
 181  0076  0F03        	mov a,3
 181  0077  0080     R  	mov _WindSpeed_Class[0],a
 181  0078  1F00     R  	clr _WindSpeed_Class[1]
 181  0079  2800     R  	jmp _L46
 181  007A              _L52:
 184  007A              #line 184 "c:\users\bill\desktop\軒哥論文相關\source code\20210129\device\ht66f70a\wind_speed\wind_speed.c"
 184  007A  0FAE        	mov a,174
 184  007B  0200     E  	sub a,rb
 184  007C  0F01        	mov a,1
 184  007D  1200     E  	sbc a,rc
 184  007E  3C0A        	sz c
 184  007F  2800     R  	jmp _L53
 186  0080              #line 186 "c:\users\bill\desktop\軒哥論文相關\source code\20210129\device\ht66f70a\wind_speed\wind_speed.c"
 186  0080  0F03        	mov a,3
 186  0081  009E        	mov [30],a
 187  0082              #line 187 "c:\users\bill\desktop\軒哥論文相關\source code\20210129\device\ht66f70a\wind_speed\wind_speed.c"
 187  0082  0F02        	mov a,2
 187  0083  0080     R  	mov _WindSpeed_Class[0],a
 187  0084  1F00     R  	clr _WindSpeed_Class[1]
 187  0085  2800     R  	jmp _L46
 187  0086              _L53:
 190  0086              #line 190 "c:\users\bill\desktop\軒哥論文相關\source code\20210129\device\ht66f70a\wind_speed\wind_speed.c"
 190  0086  0F90        	mov a,144
 190  0087  0200     E  	sub a,rb
 190  0088  0F01        	mov a,1
 190  0089  1200     E  	sbc a,rc
 190  008A  3C0A        	sz c
 190  008B  2800     R  	jmp _L54
 192  008C              #line 192 "c:\users\bill\desktop\軒哥論文相關\source code\20210129\device\ht66f70a\wind_speed\wind_speed.c"
 192  008C  0F01        	mov a,1
 192  008D  009E        	mov [30],a
 193  008E              #line 193 "c:\users\bill\desktop\軒哥論文相關\source code\20210129\device\ht66f70a\wind_speed\wind_speed.c"
 193  008E  0F01        	mov a,1
 193  008F  0080     R  	mov _WindSpeed_Class[0],a
 193  0090  1F00     R  	clr _WindSpeed_Class[1]
 193  0091  2800     R  	jmp _L46
 193  0092              _L54:
 196  0092              #line 196 "c:\users\bill\desktop\軒哥論文相關\source code\20210129\device\ht66f70a\wind_speed\wind_speed.c"
 196  0092  0700     E  	mov a,rb
 196  0093  0A90        	sub a,144
 196  0094  0700     E  	mov a,rc
 196  0095  0801        	sbc a,1
 196  0096  3F0A        	sz cz
 196  0097  2800     R  	jmp _L46
 198  0098              #line 198 "c:\users\bill\desktop\軒哥論文相關\source code\20210129\device\ht66f70a\wind_speed\wind_speed.c"
 198  0098  1F1E        	clr [30]
 199  0099              #line 199 "c:\users\bill\desktop\軒哥論文相關\source code\20210129\device\ht66f70a\wind_speed\wind_speed.c"
 199  0099  1F00     R  	clr _WindSpeed_Class[0]
 199  009A  1F00     R  	clr _WindSpeed_Class[1]
 199  009B              _L46:
 202  009B              #line 202 "c:\users\bill\desktop\軒哥論文相關\source code\20210129\device\ht66f70a\wind_speed\wind_speed.c"
 202  009B  0F01        	mov a,1
 202  009C  0080     R  	mov _TransmitData[18],a
"File: wind_speed.c  Assembler  Version HGASM0202      Page 17

 203  009D              #line 203 "c:\users\bill\desktop\軒哥論文相關\source code\20210129\device\ht66f70a\wind_speed\wind_speed.c"
 203  009D  0700     R  	mov a,_WindSpeed_Class[0]
 203  009E  0080     R  	mov _TransmitData[19],a
 206  009F              #line 206 "c:\users\bill\desktop\軒哥論文相關\source code\20210129\device\ht66f70a\wind_speed\wind_speed.c"
 206  009F              	fcall _crc_cal
 207  00A6              #line 207 "c:\users\bill\desktop\軒哥論文相關\source code\20210129\device\ht66f70a\wind_speed\wind_speed.c"
 207  00A6  0700     R  	mov a,_crc[0]
 207  00A7  0080     R  	mov _TransmitData[20],a
 209  00A8              #line 209 "c:\users\bill\desktop\軒哥論文相關\source code\20210129\device\ht66f70a\wind_speed\wind_speed.c"
 209  00A8  1F00     R  	clr _i[0]
 209  00A9  1F00     R  	clr _i[1]
 209  00AA              _L55:
 209  00AA  0700     R  	mov a,_i[0]
 209  00AB  0080     E  	mov rb,a
 209  00AC  0700     R  	mov a,_i[1]
 209  00AD  0080     E  	mov rc,a
 209  00AE  0F14        	mov a,20
 209  00AF  0200     E  	sub a,rb
 209  00B0  0F00        	mov a,0
 209  00B1  1200     E  	sbc a,rc
 209  00B2  380A        	snz c
 209  00B3  2800     R  	jmp _L62
 211  00B4              #line 211 "c:\users\bill\desktop\軒哥論文相關\source code\20210129\device\ht66f70a\wind_speed\wind_speed.c"
 211  00B4  0F00     R  	mov a,low offset _TransmitData
 211  00B5  0300     E  	add a,rb
 211  00B6  0083        	mov mp,a
 211  00B7  0F00     R  	mov a,high offset _TransmitData
 211  00B8  1300     E  	adc a,rc
 211  00B9  0084        	mov sbp,a
 211  00BA              	fcall _Crom2Prom
 211  00C1  0080     R  	mov _TXREG[0],a
 212  00C2              #line 212 "c:\users\bill\desktop\軒哥論文相關\source code\20210129\device\ht66f70a\wind_speed\wind_speed.c"
 212  00C2              	fcall _TRANSMIT
 209  00C9              #line 209 "c:\users\bill\desktop\軒哥論文相關\source code\20210129\device\ht66f70a\wind_speed\wind_speed.c"
 209  00C9  1480     R  	inc _i[0]
 209  00CA  3D0A        	sz z
 209  00CB  1480     R  	inc _i[1]
 209  00CC  2800     R  	jmp _L55
 209  00CD              _L62:
 215  00CD              #line 215 "c:\users\bill\desktop\軒哥論文相關\source code\20210129\device\ht66f70a\wind_speed\wind_speed.c"
 215  00CD              ;# 215 "c:\users\bill\desktop\軒哥論文相關\source code\20210129\device\ht66f70a\wind_speed\wind_speed.c" 1
 215  00CD  0001        	clr wdt1
 216  00CE              #line 216 "c:\users\bill\desktop\軒哥論文相關\source code\20210129\device\ht66f70a\wind_speed\wind_speed.c"
 216  00CE  37E8        	clr [104].7
 217  00CF              #line 217 "c:\users\bill\desktop\軒哥論文相關\source code\20210129\device\ht66f70a\wind_speed\wind_speed.c"
 217  00CF              ;# 217 "c:\users\bill\desktop\軒哥論文相關\source code\20210129\device\ht66f70a\wind_speed\wind_speed.c" 1
 217  00CF              	IF 200000>263690
 217  00CF              ;# 217 "c:\users\bill\desktop\軒哥論文相關\source code\20210129\device\ht66f70a\wind_speed\wind_speed.c" 1
 217  00CF              	ERRMESSAGE 'the value 200000of the argument exceeds the maxinum 263690'
 217  00CF              	ENDIF
 217  00CF              ;# 217 "c:\users\bill\desktop\軒哥論文相關\source code\20210129\device\ht66f70a\wind_speed\wind_speed.c" 1
 217  00CF              	IF 200000<0
 217  00CF              ;# 217 "c:\users\bill\desktop\軒哥論文相關\source code\20210129\device\ht66f70a\wind_speed\wind_speed.c" 1
 217  00CF              	ERRMESSAGE 'the value 200000 of the argument exceeds the mininum 0'
 217  00CF              	ENDIF
 217  00CF              ;# 217 "c:\users\bill\desktop\軒哥論文相關\source code\20210129\device\ht66f70a\wind_speed\wind_speed.c" 1
 217  00CF              	IF 200000==0
 217  00CF              ;# 217 "c:\users\bill\desktop\軒哥論文相關\source code\20210129\device\ht66f70a\wind_speed\wind_speed.c" 1
 217  00CF              	JMP $
 217  00CF              	ENDIF
"File: wind_speed.c  Assembler  Version HGASM0202      Page 18

 217  00CF              ;# 217 "c:\users\bill\desktop\軒哥論文相關\source code\20210129\device\ht66f70a\wind_speed\wind_speed.c" 1
 217  00CF              	IF (200000>=1) AND (200000<( 4 + __PBP__ * 2))
 217  00CF              ;# 217 "c:\users\bill\desktop\軒哥論文相關\source code\20210129\device\ht66f70a\wind_speed\wind_speed.c" 1
 217  00CF              	NOP
 217  00CF              	ENDIF
 217  00CF              ;# 217 "c:\users\bill\desktop\軒哥論文相關\source code\20210129\device\ht66f70a\wind_speed\wind_speed.c" 1
 217  00CF              	IF (200000>=2) AND (200000<( 4 + __PBP__ * 2))
 217  00CF              ;# 217 "c:\users\bill\desktop\軒哥論文相關\source code\20210129\device\ht66f70a\wind_speed\wind_speed.c" 1
 217  00CF              	NOP
 217  00CF              	ENDIF
 217  00CF              ;# 217 "c:\users\bill\desktop\軒哥論文相關\source code\20210129\device\ht66f70a\wind_speed\wind_speed.c" 1
 217  00CF              	IF (200000>=3) AND (200000<( 4 + __PBP__ * 2))
 217  00CF              ;# 217 "c:\users\bill\desktop\軒哥論文相關\source code\20210129\device\ht66f70a\wind_speed\wind_speed.c" 1
 217  00CF              	NOP
 217  00CF              	ENDIF
 217  00CF              ;# 217 "c:\users\bill\desktop\軒哥論文相關\source code\20210129\device\ht66f70a\wind_speed\wind_speed.c" 1
 217  00CF              	IF (200000>=4) AND (200000<( 4 + __PBP__ * 2)) AND ( __PBP__ > 0 )
 217  00CF              ;# 217 "c:\users\bill\desktop\軒哥論文相關\source code\20210129\device\ht66f70a\wind_speed\wind_speed.c" 1
 217  00CF              	NOP
 217  00CF              	ENDIF
 217  00CF              ;# 217 "c:\users\bill\desktop\軒哥論文相關\source code\20210129\device\ht66f70a\wind_speed\wind_speed.c" 1
 217  00CF              	IF (200000>=5) AND (200000<( 4 + __PBP__ * 2)) AND ( __PBP__ > 0 )
 217  00CF              ;# 217 "c:\users\bill\desktop\軒哥論文相關\source code\20210129\device\ht66f70a\wind_speed\wind_speed.c" 1
 217  00CF              	NOP
 217  00CF              	ENDIF
 217  00CF              ;# 217 "c:\users\bill\desktop\軒哥論文相關\source code\20210129\device\ht66f70a\wind_speed\wind_speed.c" 1
 217  00CF              	IF (200000>=6) AND (200000<( 4 + __PBP__ * 2))  AND ( __PBP__ > 1 )
 217  00CF              ;# 217 "c:\users\bill\desktop\軒哥論文相關\source code\20210129\device\ht66f70a\wind_speed\wind_speed.c" 1
 217  00CF              	NOP
 217  00CF              	ENDIF
 217  00CF              ;# 217 "c:\users\bill\desktop\軒哥論文相關\source code\20210129\device\ht66f70a\wind_speed\wind_speed.c" 1
 217  00CF              	IF (200000>=7) AND (200000<( 4 + __PBP__ * 2))  AND ( __PBP__ > 1 )
 217  00CF              ;# 217 "c:\users\bill\desktop\軒哥論文相關\source code\20210129\device\ht66f70a\wind_speed\wind_speed.c" 1
 217  00CF              	NOP
 217  00CF              	ENDIF
 217  00CF              ;# 217 "c:\users\bill\desktop\軒哥論文相關\source code\20210129\device\ht66f70a\wind_speed\wind_speed.c" 1
 217  00CF              	IF (200000>=8) AND (200000<( 4 + __PBP__ * 2))  AND ( __PBP__ > 2 )
 217  00CF              ;# 217 "c:\users\bill\desktop\軒哥論文相關\source code\20210129\device\ht66f70a\wind_speed\wind_speed.c" 1
 217  00CF              	NOP
 217  00CF              	ENDIF
 217  00CF              ;# 217 "c:\users\bill\desktop\軒哥論文相關\source code\20210129\device\ht66f70a\wind_speed\wind_speed.c" 1
 217  00CF              	IF (200000==9)  AND ( __PBP__ > 2 )
 217  00CF              ;# 217 "c:\users\bill\desktop\軒哥論文相關\source code\20210129\device\ht66f70a\wind_speed\wind_speed.c" 1
 217  00CF              	NOP
 217  00CF              	ENDIF
 217  00CF              ;# 217 "c:\users\bill\desktop\軒哥論文相關\source code\20210129\device\ht66f70a\wind_speed\wind_speed.c" 1
 217  00CF              	IF (200000< ( 8 + __PBP__ * 2)) AND (200000>( 3 + __PBP__ * 2))
 217  00CF              ;# 217 "c:\users\bill\desktop\軒哥論文相關\source code\20210129\device\ht66f70a\wind_speed\wind_speed.c" 1
 217  00CF              	fcall __DELAY3 + ( 7 + __PBP__ * 2) -200000
 217  00CF              	ENDIF
 217  00CF              ;# 217 "c:\users\bill\desktop\軒哥論文相關\source code\20210129\device\ht66f70a\wind_speed\wind_speed.c" 1
 217  00CF              	IF (200000< ( 0404h + __PBP__ * 2)) AND (200000>( 7 + __PBP__ * 2))
 217  00CF              ;# 217 "c:\users\bill\desktop\軒哥論文相關\source code\20210129\device\ht66f70a\wind_speed\wind_speed.c" 1
 217  00CF              	MOV A,(200000-( 4 + __PBP__ * 2))/4
 217  00CF              ;# 217 "c:\users\bill\desktop\軒哥論文相關\source code\20210129\device\ht66f70a\wind_speed\wind_speed.c" 1
 217  00CF              	fcall __DELAYX3 + 3 -((200000-( 4 + __PBP__ * 2)) MOD 4) 
 217  00CF              	ENDIF
 217  00CF              ;# 217 "c:\users\bill\desktop\軒哥論文相關\source code\20210129\device\ht66f70a\wind_speed\wind_speed.c" 1
 217  00CF              	IF (200000< ( 040bh + __PBP__ * 2)) AND (200000> ( 0403h + __PBP__ * 2))
 217  00CF              ;# 217 "c:\users\bill\desktop\軒哥論文相關\source code\20210129\device\ht66f70a\wind_speed\wind_speed.c" 1
"File: wind_speed.c  Assembler  Version HGASM0202      Page 19

 217  00CF              	MOV A,0 
 217  00CF              ;# 217 "c:\users\bill\desktop\軒哥論文相關\source code\20210129\device\ht66f70a\wind_speed\wind_speed.c" 1
 217  00CF              	fcall __DELAYX6 + ( 040ah + __PBP__ * 2) -200000
 217  00CF              	ENDIF
 217  00CF              ;# 217 "c:\users\bill\desktop\軒哥論文相關\source code\20210129\device\ht66f70a\wind_speed\wind_speed.c" 1
 217  00CF              	IF (200000 >= ( 040bh + __PBP__ * 2)) AND ((((200000-( 9 + __PBP__ * 2))%0402h)/4+1)>256)
 217  00CF              ;# 217 "c:\users\bill\desktop\軒哥論文相關\source code\20210129\device\ht66f70a\wind_speed\wind_speed.c" 1
 217  00CF              	MOV A,(200000-( 9 + __PBP__ * 2))/0402h
 217  00CF              ;# 217 "c:\users\bill\desktop\軒哥論文相關\source code\20210129\device\ht66f70a\wind_speed\wind_speed.c" 1
 217  00CF              	MOV _builtin_holtek_delay_2,A
 217  00CF              ;# 217 "c:\users\bill\desktop\軒哥論文相關\source code\20210129\device\ht66f70a\wind_speed\wind_speed.c" 1
 217  00CF              	MOV A,0
 217  00CF              ;# 217 "c:\users\bill\desktop\軒哥論文相關\source code\20210129\device\ht66f70a\wind_speed\wind_speed.c" 1
 217  00CF              	fcall __DELAYY5 +5- (((200000-( 9 + __PBP__ * 2))%0402h)%6) 
 217  00CF              	ENDIF
 217  00CF              ;# 217 "c:\users\bill\desktop\軒哥論文相關\source code\20210129\device\ht66f70a\wind_speed\wind_speed.c" 1
 217  00CF              	IF (200000 >= ( 040bh + __PBP__ * 2)) AND ((((200000-( 9 + __PBP__ * 2))%0402h)/4+1)<=256)
 217  00CF              ;# 217 "c:\users\bill\desktop\軒哥論文相關\source code\20210129\device\ht66f70a\wind_speed\wind_speed.c" 1
 217  00CF  0FC2        	MOV A,(200000-( 9 + __PBP__ * 2))/0402h
 217  00D0              ;# 217 "c:\users\bill\desktop\軒哥論文相關\source code\20210129\device\ht66f70a\wind_speed\wind_speed.c" 1
 217  00D0  0080     E  	MOV _builtin_holtek_delay_2,A
 217  00D1              ;# 217 "c:\users\bill\desktop\軒哥論文相關\source code\20210129\device\ht66f70a\wind_speed\wind_speed.c" 1
 217  00D1  0FEC        	MOV A,((200000-( 9 + __PBP__ * 2))%0402h)/4+1
 217  00D2              ;# 217 "c:\users\bill\desktop\軒哥論文相關\source code\20210129\device\ht66f70a\wind_speed\wind_speed.c" 1
 217  00D2              	fcall __DELAYY3 +3-(((200000-( 9 + __PBP__ * 2))%0402h)%4) 
 217  00D9              	ENDIF
 217  00D9  2800     R  	jmp _L44
 217  00DA              _L61:
 219  00DA              #line 219 "c:\users\bill\desktop\軒哥論文相關\source code\20210129\device\ht66f70a\wind_speed\wind_speed.c"
 219  00DA  36B4        	clr [52].5
 219  00DB  0700     E  	mov a,r2
 219  00DC  008B        	mov bp,a
 219  00DD  0700     E  	mov a,r3
 219  00DE  008A        	mov status,a
 219  00DF  0700     E  	mov a,r4
 219  00E0  0083        	mov mp,a
 219  00E1  0700     E  	mov a,r5
 219  00E2  0084        	mov sbp,a
 219  00E3  0700     E  	mov a,r6
 219  00E4  0087        	mov tblp,a
 219  00E5  0700     E  	mov a,r7
 219  00E6  0089        	mov tbhp,a
 219  00E7  1D05        	tabrdc acc
 219  00E8  0700     E  	mov a,r1
 219  00E9  0004        	reti
 219  00EA              _ISR_TM0 endp
 219  00EA              
 219  00EA              #line 219 "c:\users\bill\desktop\軒哥論文相關\source code\20210129\device\ht66f70a\wind_speed\wind_speed.c"
 219  00EA              #pragma debug scope 1 1
  52  00EA              #line 52 "c:\users\bill\desktop\軒哥論文相關\source code\20210129\device\ht66f70a\wind_speed\wind_speed.c"
  52  00EA              public _ZigbeeREG_Const
  52  0000              @HCCINIT0_ZigbeeREG_Const .section 'data'
  52  0000              _ZigbeeREG_Const	db 0
  52  0001              #pragma debug variable 8 1 _ZigbeeREG_Const "ZigbeeREG_Const"
  52  0001              
  52  0000              @HCCINIT .section 'data'
  51  0000              #line 51 "c:\users\bill\desktop\軒哥論文相關\source code\20210129\device\ht66f70a\wind_speed\wind_speed.c"
  51  0000              public _ReceiveData
  51  0000              @HCCINIT0_ReceiveData .section 'data'
  51  0000  0017[       _ReceiveData	db 23 dup(0)
"File: wind_speed.c  Assembler  Version HGASM0202      Page 20

            00
            ]
  51  0017              #pragma debug array 42 8 23 1
  51  0017              #pragma debug array 42 8 23 1
  51  0017              #pragma debug variable 42 1 _ReceiveData "ReceiveData"
  51  0017              
  51  0000              @HCCINIT .section 'data'
  50  0000              #line 50 "c:\users\bill\desktop\軒哥論文相關\source code\20210129\device\ht66f70a\wind_speed\wind_speed.c"
  50  0000              public _TransmitData
  50  0000              @HCCINIT0_TransmitData .section 'data'
  50  0000  0019[       _TransmitData	db 25 dup(0)
            00
            ]
  50  0019              #pragma debug array 43 8 25 1
  50  0019              #pragma debug array 43 8 25 1
  50  0019              #pragma debug variable 43 1 _TransmitData "TransmitData"
  50  0019              
  50  0000              @HCCINIT .section 'data'
  49  0000              #line 49 "c:\users\bill\desktop\軒哥論文相關\source code\20210129\device\ht66f70a\wind_speed\wind_speed.c"
  49  0000              public _RCREG
  49  0000              @HCCINIT0_RCREG .section 'data'
  49  0000              _RCREG	db 0
  49  0001              #pragma debug variable 8 1 _RCREG "RCREG"
  49  0001              
  49  0000              @HCCINIT .section 'data'
  48  0000              #line 48 "c:\users\bill\desktop\軒哥論文相關\source code\20210129\device\ht66f70a\wind_speed\wind_speed.c"
  48  0000              public _TXREG
  48  0000              @HCCINIT0_TXREG .section 'data'
  48  0000              _TXREG	db 0
  48  0001              #pragma debug variable 8 1 _TXREG "TXREG"
  48  0001              
  48  0000              @HCCINIT .section 'data'
  47  0000              #line 47 "c:\users\bill\desktop\軒哥論文相關\source code\20210129\device\ht66f70a\wind_speed\wind_speed.c"
  47  0000              public _UartBitCount
  47  0000              @HCCINIT0_UartBitCount .section 'data'
  47  0000              _UartBitCount	db 0
  47  0001              #pragma debug variable 8 1 _UartBitCount "UartBitCount"
  47  0001              
  47  0000              @HCCINIT .section 'data'
  46  0000              #line 46 "c:\users\bill\desktop\軒哥論文相關\source code\20210129\device\ht66f70a\wind_speed\wind_speed.c"
  46  0000              public _BaudRate_Const
  46  0000              @HCCINIT0_BaudRate_Const .section 'data'
  46  0000              _BaudRate_Const	db 0
  46  0001              #pragma debug variable 8 1 _BaudRate_Const "BaudRate_Const"
  46  0001              
  46  0000              @HCCINIT .section 'data'
  45  0000              #line 45 "c:\users\bill\desktop\軒哥論文相關\source code\20210129\device\ht66f70a\wind_speed\wind_speed.c"
  45  0000              public _BaudRate
  45  0000              @HCCINIT0_BaudRate .section 'data'
  45  0000              _BaudRate	db 0
  45  0001              #pragma debug variable 8 1 _BaudRate "BaudRate"
  45  0001              
  45  0000              @HCCINIT .section 'data'
  44  0000              #line 44 "c:\users\bill\desktop\軒哥論文相關\source code\20210129\device\ht66f70a\wind_speed\wind_speed.c"
  44  0000              public _i
  44  0000              @HCCINIT0_i .section 'data'
  44  0000  0002[       _i	db 2 dup(0)
            00
            ]
  44  0002              #pragma debug variable 12 1 _i "i"
"File: wind_speed.c  Assembler  Version HGASM0202      Page 21

  44  0002              
  44  0000              @HCCINIT .section 'data'
  43  0000              #line 43 "c:\users\bill\desktop\軒哥論文相關\source code\20210129\device\ht66f70a\wind_speed\wind_speed.c"
  43  0000              public _crc
  43  0000              @HCCINIT0_crc .section 'data'
  43  0000              _crc	db 0
  43  0001              #pragma debug variable 8 1 _crc "crc"
  43  0001              
  43  0000              @HCCINIT .section 'data'
  40  0000              #line 40 "c:\users\bill\desktop\軒哥論文相關\source code\20210129\device\ht66f70a\wind_speed\wind_speed.c"
  40  0000              public _CTM_Count1
  40  0000              @HCCINIT0_CTM_Count1 .section 'data'
  40  0000  0002[       _CTM_Count1	db 2 dup(0)
            00
            ]
  40  0002              #pragma debug variable 12 1 _CTM_Count1 "CTM_Count1"
  40  0002              
  40  0000              @HCCINIT .section 'data'
  37  0000              #line 37 "c:\users\bill\desktop\軒哥論文相關\source code\20210129\device\ht66f70a\wind_speed\wind_speed.c"
  37  0000              public _ADC_Ch4_LByte
  37  0000              @HCCINIT0_ADC_Ch4_LByte .section 'data'
  37  0000  0002[       _ADC_Ch4_LByte	db 2 dup(0)
            00
            ]
  37  0002              #pragma debug variable 12 1 _ADC_Ch4_LByte "ADC_Ch4_LByte"
  37  0002              
  37  0000              @HCCINIT .section 'data'
  37  0000              #line 37 "c:\users\bill\desktop\軒哥論文相關\source code\20210129\device\ht66f70a\wind_speed\wind_speed.c"
  37  0000              public _ADC_Ch4_HByte
  37  0000              @HCCINIT0_ADC_Ch4_HByte .section 'data'
  37  0000  0002[       _ADC_Ch4_HByte	db 2 dup(0)
            00
            ]
  37  0002              #pragma debug variable 12 1 _ADC_Ch4_HByte "ADC_Ch4_HByte"
  37  0002              
  37  0000              @HCCINIT .section 'data'
   8  0000              #line 8 "c:\users\bill\desktop\軒哥論文相關\source code\20210129\device\ht66f70a\wind_speed\wind_speed.c"
   8  0000              public _WindSpeed_Class
   8  0000              @HCCINIT0_WindSpeed_Class .section 'data'
   8  0000  0002[       _WindSpeed_Class	db 2 dup(0)
            00
            ]
   8  0002              #pragma debug variable 10 1 _WindSpeed_Class "WindSpeed_Class"
   8  0002              
   8  0000              @HCCINIT .section 'data'
   7  0000              #line 7 "c:\users\bill\desktop\軒哥論文相關\source code\20210129\device\ht66f70a\wind_speed\wind_speed.c"
   7  0000              public _ADR
   7  0000              @HCCINIT0_ADR .section 'data'
   7  0000  0002[       _ADR	db 2 dup(0)
            00
            ]
   7  0002              #pragma debug variable 10 1 _ADR "ADR"
   7  0002              
   7  0000              @HCCINIT .section 'data'
   7  0000              #pragma debug struct_end
   7  0000              #pragma debug struct_end
   7  0000              #pragma debug union_end
   7  0000              #pragma debug union_end
   7  0000              #pragma debug variable 45 1 ___status "__status" 1
   7  0000              #pragma debug struct_end
"File: wind_speed.c  Assembler  Version HGASM0202      Page 22

   7  0000              #pragma debug struct_end
   7  0000              #pragma debug union_end
   7  0000              #pragma debug union_end
   7  0000              #pragma debug variable 47 1 ___pc "__pc" 1
   7  0000              #pragma debug struct_end
   7  0000              #pragma debug struct_end
   7  0000              #pragma debug union_end
   7  0000              #pragma debug union_end
   7  0000              #pragma debug variable 49 1 ___pcc "__pcc" 1
   7  0000              #pragma debug struct_end
   7  0000              #pragma debug struct_end
   7  0000              #pragma debug union_end
   7  0000              #pragma debug union_end
   7  0000              #pragma debug variable 51 1 ___pd "__pd" 1
   7  0000              #pragma debug struct_end
   7  0000              #pragma debug struct_end
   7  0000              #pragma debug union_end
   7  0000              #pragma debug union_end
   7  0000              #pragma debug variable 53 1 ___pdc "__pdc" 1
   7  0000              #pragma debug struct_end
   7  0000              #pragma debug struct_end
   7  0000              #pragma debug union_end
   7  0000              #pragma debug union_end
   7  0000              #pragma debug variable 55 1 ___intc0 "__intc0" 1
   7  0000              #pragma debug struct_end
   7  0000              #pragma debug struct_end
   7  0000              #pragma debug union_end
   7  0000              #pragma debug union_end
   7  0000              #pragma debug variable 57 1 ___intc1 "__intc1" 1
   7  0000              #pragma debug struct_end
   7  0000              #pragma debug struct_end
   7  0000              #pragma debug union_end
   7  0000              #pragma debug union_end
   7  0000              #pragma debug variable 59 1 ___mfi0 "__mfi0" 1
   7  0000              #pragma debug struct_end
   7  0000              #pragma debug struct_end
   7  0000              #pragma debug union_end
   7  0000              #pragma debug union_end
   7  0000              #pragma debug variable 61 1 ___wdtc "__wdtc" 1
   7  0000              #pragma debug struct_end
   7  0000              #pragma debug struct_end
   7  0000              #pragma debug union_end
   7  0000              #pragma debug union_end
   7  0000              #pragma debug variable 63 1 ___tm0c0 "__tm0c0" 1
   7  0000              #pragma debug struct_end
   7  0000              #pragma debug struct_end
   7  0000              #pragma debug union_end
   7  0000              #pragma debug union_end
   7  0000              #pragma debug variable 65 1 ___tm0c1 "__tm0c1" 1
   7  0000              #pragma debug variable 8 1 ___tm0al "__tm0al" 1
   7  0000              #pragma debug variable 8 1 ___tm0ah "__tm0ah" 1
   7  0000              #pragma debug struct_end
   7  0000              #pragma debug struct_end
   7  0000              #pragma debug union_end
   7  0000              #pragma debug union_end
   7  0000              #pragma debug variable 67 1 ___adcr0 "__adcr0" 1
   7  0000              #pragma debug struct_end
   7  0000              #pragma debug struct_end
   7  0000              #pragma debug union_end
   7  0000              #pragma debug union_end
"File: wind_speed.c  Assembler  Version HGASM0202      Page 23

   7  0000              #pragma debug variable 69 1 ___adcr1 "__adcr1" 1
   7  0000              #pragma debug variable 8 1 ___adrl "__adrl" 1
   7  0000              #pragma debug variable 8 1 ___adrh "__adrh" 1
   7  0000              #pragma debug struct_end
   7  0000              #pragma debug struct_end
   7  0000              #pragma debug union_end
   7  0000              #pragma debug union_end
   7  0000              #pragma debug variable 71 1 ___pas2 "__pas2" 1
   7  0000              extern r1:byte
   7  0000              extern r2:byte
   7  0000              extern r3:byte
   7  0000              extern r4:byte
   7  0000              extern r5:byte
   7  0000              extern r6:byte
   7  0000              extern r7:byte
  61  0000              #line 61 "c:\users\bill\desktop\軒哥論文相關\source code\20210129\device\ht66f70a\wind_speed\wind_speed.c"
  61  0000              @code .section at 0 'code'
  61  0000  1F0B        	clr bp
  61  0001  2800     R  	jmp _main_startup1
  61  0002              
  61  0002              
  61  0002              ; 
  61  0002              ; Generated by holtek-gcc v3.19, Fri Feb 05 16:06:21 2021
  61  0002              ; Rebuild 718
  61  0002              ; end of file


        0 Errors, 0